(lp0
ccopy_reg
_reconstructor
p1
(cprocedural_city_generation.roadmap.Vertex
Vertex
p2
c__builtin__
object
p3
Ntp4
Rp5
(dp6
S'neighbours'
p7
(lp8
g1
(g2
g3
Ntp9
Rp10
(dp11
g7
(lp12
g5
ag1
(g2
g3
Ntp13
Rp14
(dp15
g7
(lp16
g10
ag1
(g2
g3
Ntp17
Rp18
(dp19
g7
(lp20
g14
ag1
(g2
g3
Ntp21
Rp22
(dp23
g7
(lp24
g18
ag1
(g2
g3
Ntp25
Rp26
(dp27
g7
(lp28
g1
(g2
g3
Ntp29
Rp30
(dp31
g7
(lp32
g1
(g2
g3
Ntp33
Rp34
(dp35
g7
(lp36
g18
ag1
(g2
g3
Ntp37
Rp38
(dp39
g7
(lp40
g1
(g2
g3
Ntp41
Rp42
(dp43
g7
(lp44
g1
(g2
g3
Ntp45
Rp46
(dp47
g7
(lp48
g10
ag42
ag1
(g2
g3
Ntp49
Rp50
(dp51
g7
(lp52
g46
ag1
(g2
g3
Ntp53
Rp54
(dp55
g7
(lp56
g50
ag1
(g2
g3
Ntp57
Rp58
(dp59
g7
(lp60
g54
ag1
(g2
g3
Ntp61
Rp62
(dp63
g7
(lp64
g1
(g2
g3
Ntp65
Rp66
(dp67
g7
(lp68
g62
ag1
(g2
g3
Ntp69
Rp70
(dp71
g7
(lp72
g66
ag1
(g2
g3
Ntp73
Rp74
(dp75
g7
(lp76
g70
ag1
(g2
g3
Ntp77
Rp78
(dp79
g7
(lp80
g74
ag1
(g2
g3
Ntp81
Rp82
(dp83
g7
(lp84
g1
(g2
g3
Ntp85
Rp86
(dp87
g7
(lp88
g1
(g2
g3
Ntp89
Rp90
(dp91
g7
(lp92
g1
(g2
g3
Ntp93
Rp94
(dp95
g7
(lp96
g66
ag90
asS'seed'
p97
I00
sS'coords'
p98
cnumpy.core.multiarray
_reconstruct
p99
(cnumpy
ndarray
p100
(I0
tp101
S'b'
p102
tp103
Rp104
(I1
(I2
tp105
cnumpy
dtype
p106
(S'f8'
p107
I0
I1
tp108
Rp109
(I3
S'<'
p110
NNNI-1
I-1
I0
tp111
bI00
S'|\xfb\x94\xe9\x1b\x8e\xef?buE{2)\x07\xc0'
p112
tp113
bsS'minor_road'
p114
I01
sbag86
ag70
ag1
(g2
g3
Ntp115
Rp116
(dp117
g7
(lp118
g86
ag1
(g2
g3
Ntp119
Rp120
(dp121
g7
(lp122
g38
ag116
ag46
ag1
(g2
g3
Ntp123
Rp124
(dp125
g7
(lp126
g116
ag30
ag1
(g2
g3
Ntp127
Rp128
(dp129
g7
(lp130
g82
ag124
ag1
(g2
g3
Ntp131
Rp132
(dp133
g7
(lp134
g128
ag1
(g2
g3
Ntp135
Rp136
(dp137
g7
(lp138
g1
(g2
g3
Ntp139
Rp140
(dp141
g7
(lp142
g26
ag136
asg97
I01
sg98
g99
(g100
(I0
tp143
g102
tp144
Rp145
(I1
(I2
tp146
g109
I00
S'\x8d,p\x99T\xf5\x17@\xea\x98"\xf8[\x0f\t\xc0'
p147
tp148
bsg114
I00
sbag132
ag1
(g2
g3
Ntp149
Rp150
(dp151
g7
(lp152
g136
ag1
(g2
g3
Ntp153
Rp154
(dp155
g7
(lp156
g150
ag1
(g2
g3
Ntp157
Rp158
(dp159
g7
(lp160
g132
ag154
ag1
(g2
g3
Ntp161
Rp162
(dp163
g7
(lp164
g158
ag1
(g2
g3
Ntp165
Rp166
(dp167
g7
(lp168
g1
(g2
g3
Ntp169
Rp170
(dp171
g7
(lp172
g166
ag1
(g2
g3
Ntp173
Rp174
(dp175
g7
(lp176
g82
ag170
ag74
asg97
I00
sg98
g99
(g100
(I0
tp177
g102
tp178
Rp179
(I1
(I2
tp180
g109
I00
S'?\x1ee{h4\xfb?\x10\xa4\xc4ro\xe9\x15\xc0'
p181
tp182
bsg114
I00
sbasg97
I01
sg98
g99
(g100
(I0
tp183
g102
tp184
Rp185
(I1
(I2
tp186
g109
I00
S'\xb3iV]\x04\xc5\x03@\x88\xc7Z\x19\x9bY\x17\xc0'
p187
tp188
bsg114
I00
sbag162
ag1
(g2
g3
Ntp189
Rp190
(dp191
g7
(lp192
g154
ag166
asg97
I00
sg98
g99
(g100
(I0
tp193
g102
tp194
Rp195
(I1
(I2
tp196
g109
I00
S's\xcamo\x90\\\x13@\xe7E%\x92\xb6\x06\x18\xc0'
p197
tp198
bsg114
I01
sbasg97
I01
sg98
g99
(g100
(I0
tp199
g102
tp200
Rp201
(I1
(I2
tp202
g109
I00
S'\xcd(\xdc\x0eZ\xbd\x0e@\xb2D\xe4\xf4\xcf\xbf\x18\xc0'
p203
tp204
bsg114
I00
sbag128
asg97
I00
sg98
g99
(g100
(I0
tp205
g102
tp206
Rp207
(I1
(I2
tp208
g109
I00
S'6\xfa\xa5b4\x11\t@2&C\rl\x84\x15\xc0'
p209
tp210
bsg114
I01
sbasg97
I00
sg98
g99
(g100
(I0
tp211
g102
tp212
Rp213
(I1
(I2
tp214
g109
I00
S'\xc3\xb4\xf2ImQ\x10@\x0e\xf1\xd4\xdc\xd38\x14\xc0'
p215
tp216
bsg114
I01
sbag190
asg97
I00
sg98
g99
(g100
(I0
tp217
g102
tp218
Rp219
(I1
(I2
tp220
g109
I00
S'\xdb\x9f\xde\xd8\xcf\x17\x13@\xeb\x1a\x1b\x19\x06\t\x14\xc0'
p221
tp222
bsg114
I01
sbasg97
I00
sg98
g99
(g100
(I0
tp223
g102
tp224
Rp225
(I1
(I2
tp226
g109
I00
S'm\x01N\xc5I\x8a\x16@y\xe4\xcd\x00\x97\x01\x12\xc0'
p227
tp228
bsg114
I01
sbag30
asg97
I00
sg98
g99
(g100
(I0
tp229
g102
tp230
Rp231
(I1
(I2
tp232
g109
I00
S'\xfb\xca\x00\xad\xda\x82\x14@\xce\x05\xbd(:\x1e\r\xc0'
p233
tp234
bsg114
I01
sbag158
ag124
asg97
I00
sg98
g99
(g100
(I0
tp235
g102
tp236
Rp237
(I1
(I2
tp238
g109
I00
S'?\xff\x083\xaa\x0b\x0e@f95\xc4\x00p\x10\xc0'
p239
tp240
bsg114
I01
sbag86
ag162
asg97
I00
sg98
g99
(g100
(I0
tp241
g102
tp242
Rp243
(I1
(I2
tp244
g109
I00
S'\x9f"\x05~\xab"\x06@\x00\x0c\x93\xfe\xe6\xad\x0f\xc0'
p245
tp246
bsg114
I01
sbag120
ag132
asg97
I00
sg98
g99
(g100
(I0
tp247
g102
tp248
Rp249
(I1
(I2
tp250
g109
I00
S'\xdd\xdfw\xab\xd1\x03\x07@0\xa8L\x01t\xdc\t\xc0'
p251
tp252
bsg114
I01
sbasg97
I00
sg98
g99
(g100
(I0
tp253
g102
tp254
Rp255
(I1
(I2
tp256
g109
I00
S'\xbfg\xf6\xa9\x9al\x03@0\xe2\x89Bp&\xfe\xbf'
p257
tp258
bsg114
I01
sbag90
ag124
asg97
I00
sg98
g99
(g100
(I0
tp259
g102
tp260
Rp261
(I1
(I2
tp262
g109
I00
S'(\xdfs\x81\x14\xb0\xff?\xc7n.w\x96P\x06\xc0'
p263
tp264
bsg114
I01
sbasg97
I00
sg98
g99
(g100
(I0
tp265
g102
tp266
Rp267
(I1
(I2
tp268
g109
I00
S'\xf4\x8a\xf8\xfcEx\xf1?\x17&\x9a\xc1\xb5\x1d\x0f\xc0'
p269
tp270
bsg114
I01
sbag116
ag82
ag128
asg97
I00
sg98
g99
(g100
(I0
tp271
g102
tp272
Rp273
(I1
(I2
tp274
g109
I00
S'/\xf6\xd0D\xa6\xb0\x00@|\x1f\x83\xbd\x19E\x0e\xc0'
p275
tp276
bsg114
I01
sbag78
ag128
ag174
asg97
I00
sg98
g99
(g100
(I0
tp277
g102
tp278
Rp279
(I1
(I2
tp280
g109
I00
S'\xca\xfc\xe7HB\x89\x01@\x18\xe8\xeb\x81\xce\x1c\x13\xc0'
p281
tp282
bsg114
I01
sbasg97
I00
sg98
g99
(g100
(I0
tp283
g102
tp284
Rp285
(I1
(I2
tp286
g109
I00
S'\n\x88\x1e\x08\x001\xfb?T\xdd\xf1\xa6i\xba\x11\xc0'
p287
tp288
bsg114
I01
sbag174
asg97
I01
sg98
g99
(g100
(I0
tp289
g102
tp290
Rp291
(I1
(I2
tp292
g109
I00
S'h\x95\x05\xf6N>\xf1?y\xf5V\xc9\x19\xc0\x14\xc0'
p293
tp294
bsg114
I00
sbag90
asg97
I01
sg98
g99
(g100
(I0
tp295
g102
tp296
Rp297
(I1
(I2
tp298
g109
I00
S'\xcd\xf8\x92\t1\x8d\xd7?\x84Qa\xccot\x11\xc0'
p299
tp300
bsg114
I00
sbag94
asg97
I01
sg98
g99
(g100
(I0
tp301
g102
tp302
Rp303
(I1
(I2
tp304
g109
I00
S'\x00\x00\x00\x00\x00\x00\x00\x00\x00\x00\x00\x00\x00\x00\x08\xc0'
p305
tp306
bsg114
I00
sbag1
(g2
g3
Ntp307
Rp308
(dp309
g7
(lp310
g62
ag1
(g2
g3
Ntp311
Rp312
(dp313
g7
(lp314
g308
ag1
(g2
g3
Ntp315
Rp316
(dp317
g7
(lp318
g312
ag1
(g2
g3
Ntp319
Rp320
(dp321
g7
(lp322
g316
ag1
(g2
g3
Ntp323
Rp324
(dp325
g7
(lp326
g320
ag1
(g2
g3
Ntp327
Rp328
(dp329
g7
(lp330
g324
ag1
(g2
g3
Ntp331
Rp332
(dp333
g7
(lp334
g328
ag1
(g2
g3
Ntp335
Rp336
(dp337
g7
(lp338
g332
ag1
(g2
g3
Ntp339
Rp340
(dp341
g7
(lp342
g336
ag1
(g2
g3
Ntp343
Rp344
(dp345
g7
(lp346
g1
(g2
g3
Ntp347
Rp348
(dp349
g7
(lp350
g336
ag344
ag1
(g2
g3
Ntp351
Rp352
(dp353
g7
(lp354
g348
ag1
(g2
g3
Ntp355
Rp356
(dp357
g7
(lp358
g352
ag1
(g2
g3
Ntp359
Rp360
(dp361
g7
(lp362
g1
(g2
g3
Ntp363
Rp364
(dp365
g7
(lp366
g344
ag360
asg97
I00
sg98
g99
(g100
(I0
tp367
g102
tp368
Rp369
(I1
(I2
tp370
g109
I00
S'\xc8\x02\xfbC\x831\x18@\xe8,\x80,Z\xec\x13@'
p371
tp372
bsg114
I01
sbag356
ag348
ag1
(g2
g3
Ntp373
Rp374
(dp375
g7
(lp376
g360
ag1
(g2
g3
Ntp377
Rp378
(dp379
g7
(lp380
g374
ag1
(g2
g3
Ntp381
Rp382
(dp383
g7
(lp384
g1
(g2
g3
Ntp385
Rp386
(dp387
g7
(lp388
g1
(g2
g3
Ntp389
Rp390
(dp391
g7
(lp392
g1
(g2
g3
Ntp393
Rp394
(dp395
g7
(lp396
g1
(g2
g3
Ntp397
Rp398
(dp399
g7
(lp400
g14
ag394
ag1
(g2
g3
Ntp401
Rp402
(dp403
g7
(lp404
g398
ag1
(g2
g3
Ntp405
Rp406
(dp407
g7
(lp408
g402
asg97
I00
sg98
g99
(g100
(I0
tp409
g102
tp410
Rp411
(I1
(I2
tp412
g109
I00
S'J\x1e\x84!\xd5\xbd\x18@t\xdc\x9e\xa1J6\xde?'
p413
tp414
bsg114
I01
sbag18
asg97
I00
sg98
g99
(g100
(I0
tp415
g102
tp416
Rp417
(I1
(I2
tp418
g109
I00
S'\x8cf\x1b\xe5\xe8\xaa\x16@2\x8f\xbc\x8b\x81\x83\xd8\xbf'
p419
tp420
bsg114
I01
sbag1
(g2
g3
Ntp421
Rp422
(dp423
g7
(lp424
g390
ag382
ag398
asg97
I00
sg98
g99
(g100
(I0
tp425
g102
tp426
Rp427
(I1
(I2
tp428
g109
I00
S'\x90g\xae^8R\x15@(,\x154\x87\xb2\xef?'
p429
tp430
bsg114
I01
sbasg97
I00
sg98
g99
(g100
(I0
tp431
g102
tp432
Rp433
(I1
(I2
tp434
g109
I00
S'\xd2\xafE"L?\x13@L\xd9\x9du\x84V\xc1?'
p435
tp436
bsg114
I01
sbag10
ag390
asg97
I00
sg98
g99
(g100
(I0
tp437
g102
tp438
Rp439
(I1
(I2
tp440
g109
I00
S'/\xf2\xdf\xbe^\xa7\x0f@?4\xad\x00\x03\xed\xe4?'
p441
tp442
bsg114
I01
sbag386
ag1
(g2
g3
Ntp443
Rp444
(dp445
g7
(lp446
g390
ag1
(g2
g3
Ntp447
Rp448
(dp449
g7
(lp450
g444
ag1
(g2
g3
Ntp451
Rp452
(dp453
g7
(lp454
g448
ag1
(g2
g3
Ntp455
Rp456
(dp457
g7
(lp458
g452
ag10
ag316
asg97
I00
sg98
g99
(g100
(I0
tp459
g102
tp460
Rp461
(I1
(I2
tp462
g109
I00
S'\x94Oou&\xa6\xfb?C\xfa\x8a\xb0\xe0\xbe\xea?'
p463
tp464
bsg114
I01
sbag1
(g2
g3
Ntp465
Rp466
(dp467
g7
(lp468
g452
ag324
ag444
asg97
I00
sg98
g99
(g100
(I0
tp469
g102
tp470
Rp471
(I1
(I2
tp472
g109
I00
S'\xc0\x86Z,\xc4\x1e\x06@{\x99y7+^\x04@'
p473
tp474
bsg114
I01
sbasg97
I00
sg98
g99
(g100
(I0
tp475
g102
tp476
Rp477
(I1
(I2
tp478
g109
I00
S'E\x17\x89\xb3\xeb\xf8\x01@\x0cX\x9cc\xe3\r\xfb?'
p479
tp480
bsg114
I01
sbasg97
I00
sg98
g99
(g100
(I0
tp481
g102
tp482
Rp483
(I1
(I2
tp484
g109
I00
S'\xba\x8449%\xd0\x08@\x16y\xf9q2\xc2\xf2?'
p485
tp486
bsg114
I01
sbag1
(g2
g3
Ntp487
Rp488
(dp489
g7
(lp490
g386
ag444
ag356
asg97
I00
sg98
g99
(g100
(I0
tp491
g102
tp492
Rp493
(I1
(I2
tp494
g109
I00
S'\xd7\xb1k\x15\xeb\x8d\x10@t\x97SD\x8c\x0f\x07@'
p495
tp496
bsg114
I01
sbag466
asg97
I00
sg98
g99
(g100
(I0
tp497
g102
tp498
Rp499
(I1
(I2
tp500
g109
I00
S'5\xf4\x05\xb2\xfd\xf5\x0c@\x00*\xa8\xbeR8\x00@'
p501
tp502
bsg114
I01
sbag422
asg97
I00
sg98
g99
(g100
(I0
tp503
g102
tp504
Rp505
(I1
(I2
tp506
g109
I00
S'\xd5\xb0\xd8\x9b\x9b\xe6\x11@\nu\xad\x8b\xf4$\xf8?'
p507
tp508
bsg114
I01
sbag488
ag382
asg97
I00
sg98
g99
(g100
(I0
tp509
g102
tp510
Rp511
(I1
(I2
tp512
g109
I00
S"\x92hA\xd8\x87\xf9\x13@\xfa'\x82\xcb\xb3\xe9\x02@"
p513
tp514
bsg114
I01
sbag422
ag378
asg97
I00
sg98
g99
(g100
(I0
tp515
g102
tp516
Rp517
(I1
(I2
tp518
g109
I00
S'M\x1f\x17\x9b$e\x17@\xffpa\xa5\xb6\x87\xfd?'
p519
tp520
bsg114
I01
sbag356
asg97
I00
sg98
g99
(g100
(I0
tp521
g102
tp522
Rp523
(I1
(I2
tp524
g109
I00
S';e\x0e\xb2\xa2\xe1\x15@\xee\xe28\xa2\xe0\x90\x06@'
p525
tp526
bsg114
I01
sbasg97
I00
sg98
g99
(g100
(I0
tp527
g102
tp528
Rp529
(I1
(I2
tp530
g109
I00
S'\x8a\x96\x1a\xe5\xc4\x88\x18@\x10m\x90J\xa8\x8d\x0c@'
p531
tp532
bsg114
I01
sbasg97
I00
sg98
g99
(g100
(I0
tp533
g102
tp534
Rp535
(I1
(I2
tp536
g109
I00
S'y\xd1\xee\x10a\x8a\x15@\xd7gTX\xf6\xed\x10@'
p537
tp538
bsg114
I01
sbag488
ag378
asg97
I00
sg98
g99
(g100
(I0
tp539
g102
tp540
Rp541
(I1
(I2
tp542
g109
I00
S'*\xa0\xe2\xdd>\xe3\x12@\x8cEQ\x08%\xdf\x0b@'
p543
tp544
bsg114
I01
sbag332
asg97
I00
sg98
g99
(g100
(I0
tp545
g102
tp546
Rp547
(I1
(I2
tp548
g109
I00
S'2\xb6m\x13\xb6\xc9\x0f@\x15\xd44\xb7\xb4\x96\x10@'
p549
tp550
bsg114
I01
sbag360
asg97
I00
sg98
g99
(g100
(I0
tp551
g102
tp552
Rp553
(I1
(I2
tp554
g109
I00
S'h\x0c\xc3<\xfd\x8b\x12@&\x99`\x8b\x18\x95\x13@'
p555
tp556
bsg114
I01
sbag340
ag364
asg97
I00
sg98
g99
(g100
(I0
tp557
g102
tp558
Rp559
(I1
(I2
tp560
g109
I00
S'\xb7=\xcfo\x1f3\x15@7^\x8c_|\x93\x16@'
p561
tp562
bsg114
I01
sbasg97
I00
sg98
g99
(g100
(I0
tp563
g102
tp564
Rp565
(I1
(I2
tp566
g109
I00
S'\xc9\xab\xd48\x9d\xa8\x11@{\x9eu:&y\x19@'
p567
tp568
bsg114
I00
sbag348
ag1
(g2
g3
Ntp569
Rp570
(dp571
g7
(lp572
g336
ag1
(g2
g3
Ntp573
Rp574
(dp575
g7
(lp576
g570
ag332
ag1
(g2
g3
Ntp577
Rp578
(dp579
g7
(lp580
g574
ag1
(g2
g3
Ntp581
Rp582
(dp583
g7
(lp584
g1
(g2
g3
Ntp585
Rp586
(dp587
g7
(lp588
g328
ag1
(g2
g3
Ntp589
Rp590
(dp591
g7
(lp592
g1
(g2
g3
Ntp593
Rp594
(dp595
g7
(lp596
g1
(g2
g3
Ntp597
Rp598
(dp599
g7
(lp600
g594
ag1
(g2
g3
Ntp601
Rp602
(dp603
g7
(lp604
g598
ag1
(g2
g3
Ntp605
Rp606
(dp607
g7
(lp608
g312
ag602
ag1
(g2
g3
Ntp609
Rp610
(dp611
g7
(lp612
g1
(g2
g3
Ntp613
Rp614
(dp615
g7
(lp616
g1
(g2
g3
Ntp617
Rp618
(dp619
g7
(lp620
g614
ag1
(g2
g3
Ntp621
Rp622
(dp623
g7
(lp624
g1
(g2
g3
Ntp625
Rp626
(dp627
g7
(lp628
g1
(g2
g3
Ntp629
Rp630
(dp631
g7
(lp632
g1
(g2
g3
Ntp633
Rp634
(dp635
g7
(lp636
g1
(g2
g3
Ntp637
Rp638
(dp639
g7
(lp640
g1
(g2
g3
Ntp641
Rp642
(dp643
g7
(lp644
g1
(g2
g3
Ntp645
Rp646
(dp647
g7
(lp648
g1
(g2
g3
Ntp649
Rp650
(dp651
g7
(lp652
g1
(g2
g3
Ntp653
Rp654
(dp655
g7
(lp656
g1
(g2
g3
Ntp657
Rp658
(dp659
g7
(lp660
g1
(g2
g3
Ntp661
Rp662
(dp663
g7
(lp664
g602
ag614
ag658
ag1
(g2
g3
Ntp665
Rp666
(dp667
g7
(lp668
g622
ag662
asg97
I00
sg98
g99
(g100
(I0
tp669
g102
tp670
Rp671
(I1
(I2
tp672
g109
I00
S'F\x8f\xcbd\x90\xec\x02\xc0`\xda\xc0\xfdRK\xfa?'
p673
tp674
bsg114
I01
sbasg97
I00
sg98
g99
(g100
(I0
tp675
g102
tp676
Rp677
(I1
(I2
tp678
g109
I00
S'\xc0\x02C\x05\x8aR\xf7\xbf\x93\rL\xcd\xf7\x95\xf3?'
p679
tp680
bsg114
I01
sbag654
ag598
ag1
(g2
g3
Ntp681
Rp682
(dp683
g7
(lp684
g650
ag590
ag658
asg97
I00
sg98
g99
(g100
(I0
tp685
g102
tp686
Rp687
(I1
(I2
tp688
g109
I00
S'X\xd2\xb2H\xa7\xcf\xe3\xbf\x97"\xfa\xaa\x92Q\x08@'
p689
tp690
bsg114
I01
sbasg97
I00
sg98
g99
(g100
(I0
tp691
g102
tp692
Rp693
(I1
(I2
tp694
g109
I00
S'\xf65\xce\xd4.\x9d\xf0\xbf\xb0\x14\xd0HG\x0e\x01@'
p695
tp696
bsg114
I01
sbag650
ag642
asg97
I00
sg98
g99
(g100
(I0
tp697
g102
tp698
Rp699
(I1
(I2
tp700
g109
I00
S'\xc4Q"\x99\xc5#\xff\xbf\x15{\n\xe1\xf4h\x04@'
p701
tp702
bsg114
I01
sbag646
ag682
asg97
I00
sg98
g99
(g100
(I0
tp703
g102
tp704
Rp705
(I1
(I2
tp706
g109
I00
S'\xfa\x84\xadhjn\xf8\xbf\xfc\x884C@\xac\x0b@'
p707
tp708
bsg114
I01
sbag642
ag1
(g2
g3
Ntp709
Rp710
(dp711
g7
(lp712
g646
ag1
(g2
g3
Ntp713
Rp714
(dp715
g7
(lp716
g710
ag1
(g2
g3
Ntp717
Rp718
(dp719
g7
(lp720
g638
ag714
ag646
ag1
(g2
g3
Ntp721
Rp722
(dp723
g7
(lp724
g718
ag1
(g2
g3
Ntp725
Rp726
(dp727
g7
(lp728
g1
(g2
g3
Ntp729
Rp730
(dp731
g7
(lp732
g634
ag1
(g2
g3
Ntp733
Rp734
(dp735
g7
(lp736
g730
asg97
I00
sg98
g99
(g100
(I0
tp737
g102
tp738
Rp739
(I1
(I2
tp740
g109
I00
S'\xb0\x0f\xc2\x11\x90\x08\x16\xc0\xe9$\xcb\xca\xcd\xe4\xff?'
p741
tp742
bsg114
I01
sbag726
ag1
(g2
g3
Ntp743
Rp744
(dp745
g7
(lp746
g1
(g2
g3
Ntp747
Rp748
(dp749
g7
(lp750
g726
ag744
ag1
(g2
g3
Ntp751
Rp752
(dp753
g7
(lp754
g748
ag1
(g2
g3
Ntp755
Rp756
(dp757
g7
(lp758
g1
(g2
g3
Ntp759
Rp760
(dp761
g7
(lp762
g722
ag756
ag714
asg97
I00
sg98
g99
(g100
(I0
tp763
g102
tp764
Rp765
(I1
(I2
tp766
g109
I00
S'\xcc\x85\x9a\xc2i\xa6\x0e\xc0\t\xe5\x067\xca\x7f\x16@'
p767
tp768
bsg114
I01
sbag752
asg97
I00
sg98
g99
(g100
(I0
tp769
g102
tp770
Rp771
(I1
(I2
tp772
g109
I00
S'\xd9Ib\x92\xda\xf4\x12\xc0<\x18$\x03!-\x18@'
p773
tp774
bsg114
I01
sbag722
ag1
(g2
g3
Ntp775
Rp776
(dp777
g7
(lp778
g752
asg97
I00
sg98
g99
(g100
(I0
tp779
g102
tp780
Rp781
(I1
(I2
tp782
g109
I00
S'\xff\x83\x94\x0f\xd7C\x18\xc0{D,\x1e\xd28\x16@'
p783
tp784
bsg114
I01
sbasg97
I00
sg98
g99
(g100
(I0
tp785
g102
tp786
Rp787
(I1
(I2
tp788
g109
I00
S'\x0c}\x7f^1\xa2\x14\xc0H\x11\x0fR{\x8b\x14@'
p789
tp790
bsg114
I01
sbasg97
I00
sg98
g99
(g100
(I0
tp791
g102
tp792
Rp793
(I1
(I2
tp794
g109
I00
S'?\xb0\x9c*\x88O\x16\xc0U\n\xfa\xa0\xd5\xe9\x10@'
p795
tp796
bsg114
I01
sbag730
asg97
I00
sg98
g99
(g100
(I0
tp797
g102
tp798
Rp799
(I1
(I2
tp800
g109
I00
S'r\xe3\xb9\xf6\xde\xfc\x17\xc0\xc4\x06\xca\xdf_\x90\n@'
p801
tp802
bsg114
I01
sbasg97
I00
sg98
g99
(g100
(I0
tp803
g102
tp804
Rp805
(I1
(I2
tp806
g109
I00
S'~\xdc\xa4E9[\x14\xc0\\\xa0\x8fG\xb25\x07@'
p807
tp808
bsg114
I01
sbag722
ag748
asg97
I00
sg98
g99
(g100
(I0
tp809
g102
tp810
Rp811
(I1
(I2
tp812
g109
I00
S'L\xa9\x87y\xe2\xad\x12\xc0D\xae\xb9\xa9\xfdx\x0e@'
p813
tp814
bsg114
I01
sbag760
ag752
asg97
I00
sg98
g99
(g100
(I0
tp815
g102
tp816
Rp817
(I1
(I2
tp818
g109
I00
S'\x19vj\xad\x8b\x00\x11\xc0\x16\xde\xf1\x85$\xde\x12@'
p819
tp820
bsg114
I01
sbasg97
I00
sg98
g99
(g100
(I0
tp821
g102
tp822
Rp823
(I1
(I2
tp824
g109
I00
S'K\xde\xaa\xf8\xcb\xbd\n\xc0\xe3\xaa\xd4\xb9\xcd0\x11@'
p825
tp826
bsg114
I01
sbag1
(g2
g3
Ntp827
Rp828
(dp829
g7
(lp830
g714
ag1
(g2
g3
Ntp831
Rp832
(dp833
g7
(lp834
g590
ag828
ag1
(g2
g3
Ntp835
Rp836
(dp837
g7
(lp838
g1
(g2
g3
Ntp839
Rp840
(dp841
g7
(lp842
g582
ag836
asg97
I00
sg98
g99
(g100
(I0
tp843
g102
tp844
Rp845
(I1
(I2
tp846
g109
I00
S'V\xaa\x9c"/\x81\xd0?ssL\xfa\xad\xb9\x13@'
p847
tp848
bsg114
I01
sbag832
asg97
I00
sg98
g99
(g100
(I0
tp849
g102
tp850
Rp851
(I1
(I2
tp852
g109
I00
S'\xac\x83\xafV\x186\xc8?\x8b\xa1\xac\x03B\xb7\x17@'
p853
tp854
bsg114
I01
sbasg97
I01
sg98
g99
(g100
(I0
tp855
g102
tp856
Rp857
(I1
(I2
tp858
g109
I00
S'\xc5\xc6k\xaaVR\xf4\xbfc\xaaI]1b\x16@'
p859
tp860
bsg114
I00
sbasg97
I00
sg98
g99
(g100
(I0
tp861
g102
tp862
Rp863
(I1
(I2
tp864
g109
I00
S'\x82\x116\xc8p\x08\x04\xc0\xca\xb8\xfe\x1b\x19t\x18@'
p865
tp866
bsg114
I01
sbag760
asg97
I00
sg98
g99
(g100
(I0
tp867
g102
tp868
Rp869
(I1
(I2
tp870
g109
I00
S'\xe6wp`\x1ec\x07\xc0\xd6\xb1\xe9js\xd2\x14@'
p871
tp872
bsg114
I01
sbag590
asg97
I00
sg98
g99
(g100
(I0
tp873
g102
tp874
Rp875
(I1
(I2
tp876
g109
I00
S'\xffiF\xfe\xd2\x1f\x00\xc0\xa4~\xcc\x9e\x1c%\x13@'
p877
tp878
bsg114
I01
sbag718
asg97
I00
sg98
g99
(g100
(I0
tp879
g102
tp880
Rp881
(I1
(I2
tp882
g109
I00
S'd\xd0\x80\x96\x80z\x03\xc0a\xefn\xdb\xed\x06\x0f@'
p883
tp884
bsg114
I01
sbag654
ag638
ag630
asg97
I00
sg98
g99
(g100
(I0
tp885
g102
tp886
Rp887
(I1
(I2
tp888
g109
I00
S'\xc96\xbb..\xd5\x06\xc0z\xe1Dy\xa2\xc3\x07@'
p889
tp890
bsg114
I01
sbag634
ag718
asg97
I00
sg98
g99
(g100
(I0
tp891
g102
tp892
Rp893
(I1
(I2
tp894
g109
I00
S'\xb0D\xe5\x90y\x18\x0e\xc0\xdfG\x7f\x11P\x1e\x0b@'
p895
tp896
bsg114
I01
sbag630
ag730
ag1
(g2
g3
Ntp897
Rp898
(dp899
g7
(lp900
g626
ag1
(g2
g3
Ntp901
Rp902
(dp903
g7
(lp904
g898
ag1
(g2
g3
Ntp905
Rp906
(dp907
g7
(lp908
g902
ag626
ag1
(g2
g3
Ntp909
Rp910
(dp911
g7
(lp912
g906
ag1
(g2
g3
Ntp913
Rp914
(dp915
g7
(lp916
g1
(g2
g3
Ntp917
Rp918
(dp919
g7
(lp920
g1
(g2
g3
Ntp921
Rp922
(dp923
g7
(lp924
g610
ag918
ag1
(g2
g3
Ntp925
Rp926
(dp927
g7
(lp928
g922
ag614
ag914
asg97
I00
sg98
g99
(g100
(I0
tp929
g102
tp930
Rp931
(I1
(I2
tp932
g109
I00
S'b\xa7\x08\x84\xbc\xb0\x04\xc0\xaa\xc7\xc0\x95\xff\xdc\xe1\xbf'
p933
tp934
bsg114
I01
sbasg97
I01
sg98
g99
(g100
(I0
tp935
g102
tp936
Rp937
(I1
(I2
tp938
g109
I00
S'.\xbcR\xa4b\xce\xfe\xbf\xe0\x1d\xf1\xd8\x84\xd4\xf4\xbf'
p939
tp940
bsg114
I00
sbag1
(g2
g3
Ntp941
Rp942
(dp943
g7
(lp944
g918
ag1
(g2
g3
Ntp945
Rp946
(dp947
g7
(lp948
g942
ag1
(g2
g3
Ntp949
Rp950
(dp951
g7
(lp952
g946
ag1
(g2
g3
Ntp953
Rp954
(dp955
g7
(lp956
g950
ag1
(g2
g3
Ntp957
Rp958
(dp959
g7
(lp960
g1
(g2
g3
Ntp961
Rp962
(dp963
g7
(lp964
g950
ag1
(g2
g3
Ntp965
Rp966
(dp967
g7
(lp968
g962
ag942
ag946
ag1
(g2
g3
Ntp969
Rp970
(dp971
g7
(lp972
g966
ag1
(g2
g3
Ntp973
Rp974
(dp975
g7
(lp976
g970
ag942
ag1
(g2
g3
Ntp977
Rp978
(dp979
g7
(lp980
g974
asg97
I00
sg98
g99
(g100
(I0
tp981
g102
tp982
Rp983
(I1
(I2
tp984
g109
I00
S' \xc9\x05\x053\xbf\xfc\xbf`{o\xeeE\x95\x11\xc0'
p985
tp986
bsg114
I01
sbasg97
I00
sg98
g99
(g100
(I0
tp987
g102
tp988
Rp989
(I1
(I2
tp990
g109
I00
S'\xf8\xd7\x0b\xeb\xd2~\x05\xc0\x1ct\x9f^\xb9\x85\x0f\xc0'
p991
tp992
bsg114
I01
sbag1
(g2
g3
Ntp993
Rp994
(dp995
g7
(lp996
g970
ag1
(g2
g3
Ntp997
Rp998
(dp999
g7
(lp1000
g994
ag1
(g2
g3
Ntp1001
Rp1002
(dp1003
g7
(lp1004
g998
ag970
asg97
I00
sg98
g99
(g100
(I0
tp1005
g102
tp1006
Rp1007
(I1
(I2
tp1008
g109
I00
S'4g\xc2\x00l\x04\x02\xc0\x14\xf5\xb3\xa2\xe2$\x15\xc0'
p1009
tp1010
bsg114
I01
sbasg97
I00
sg98
g99
(g100
(I0
tp1011
g102
tp1012
Rp1013
(I1
(I2
tp1014
g109
I00
S'\xd8\xe9\x01\x7f>\xa9\x05\xc0\xc8n\xf8V\x7f\xb4\x18\xc0'
p1015
tp1016
bsg114
I01
sbag962
asg97
I00
sg98
g99
(g100
(I0
tp1017
g102
tp1018
Rp1019
(I1
(I2
tp1020
g109
I00
S'@\xdd\x8a\xe7w\xc8\x0c\xc0v\xad\xd8\x17\x16\xe2\x16\xc0'
p1021
tp1022
bsg114
I01
sbag1002
asg97
I00
sg98
g99
(g100
(I0
tp1023
g102
tp1024
Rp1025
(I1
(I2
tp1026
g109
I00
S'\x9cZKi\xa5#\t\xc0\xc23\x94cyR\x13\xc0'
p1027
tp1028
bsg114
I01
sbasg97
I00
sg98
g99
(g100
(I0
tp1029
g102
tp1030
Rp1031
(I1
(I2
tp1032
g109
I00
S"\x02'\xeaho!\x10\xc0prt$\x10\x80\x11\xc0"
p1033
tp1034
bsg114
I01
sbag958
ag994
asg97
I00
sg98
g99
(g100
(I0
tp1035
g102
tp1036
Rp1037
(I1
(I2
tp1038
g109
I00
S'T\xe8\t\xa8\xd8\xf3\x11\xc0$\xec\xb8\xd8\xac\x0f\x15\xc0'
p1039
tp1040
bsg114
I01
sbag954
asg97
I00
sg98
g99
(g100
(I0
tp1041
g102
tp1042
Rp1043
(I1
(I2
tp1044
g109
I00
S'\xa6\xa9)\xe7A\xc6\x13\xc0\xd8e\xfd\x8cI\x9f\x18\xc0'
p1045
tp1046
bsg114
I01
sbasg97
I01
sg98
g99
(g100
(I0
tp1047
g102
tp1048
Rp1049
(I1
(I2
tp1050
g109
I00
S'w\xaa\xd2:KA\x18\xc0\xcd\xbc&\x12\x08\xff\x18\xc0'
p1051
tp1052
bsg114
I00
sbag962
ag1
(g2
g3
Ntp1053
Rp1054
(dp1055
g7
(lp1056
g1
(g2
g3
Ntp1057
Rp1058
(dp1059
g7
(lp1060
g1
(g2
g3
Ntp1061
Rp1062
(dp1063
g7
(lp1064
g942
ag1058
ag914
asg97
I00
sg98
g99
(g100
(I0
tp1065
g102
tp1066
Rp1067
(I1
(I2
tp1068
g109
I00
S'\x08O\x04\xfd\xb4\xe0\x11\xc0\x88\xc1w\xba\xc8J\x02\xc0'
p1069
tp1070
bsg114
I01
sbag946
ag1054
ag1
(g2
g3
Ntp1071
Rp1072
(dp1073
g7
(lp1074
g1
(g2
g3
Ntp1075
Rp1076
(dp1077
g7
(lp1078
g1
(g2
g3
Ntp1079
Rp1080
(dp1081
g7
(lp1082
g910
ag1076
ag902
asg97
I00
sg98
g99
(g100
(I0
tp1083
g102
tp1084
Rp1085
(I1
(I2
tp1086
g109
I00
S' o\xe7\xf8\x97\xc1\x15\xc0\xe0\xfb\x8er\xd7\xed\xce\xbf'
p1087
tp1088
bsg114
I01
sbag1072
asg97
I00
sg98
g99
(g100
(I0
tp1089
g102
tp1090
Rp1091
(I1
(I2
tp1092
g109
I00
S'R\xa2\x04\xc5\xeen\x17\xc0K\xfb\xa5\xb2Qd\xf2\xbf'
p1093
tp1094
bsg114
I01
sbag910
ag1058
asg97
I00
sg98
g99
(g100
(I0
tp1095
g102
tp1096
Rp1097
(I1
(I2
tp1098
g109
I00
S'^\x9b\xef\x13I\xcd\x13\xc0\x13\xc8\x1a\xe3\xac\x19\xf9\xbf'
p1099
tp1100
bsg114
I01
sbasg97
I00
sg98
g99
(g100
(I0
tp1101
g102
tp1102
Rp1103
(I1
(I2
tp1104
g109
I00
S'\x8b\xecN)\xc6\xd1\x14\xc0i!\xb8\x00\x8a\xb6\x07\xc0'
p1105
tp1106
bsg114
I01
sbag950
asg97
I00
sg98
g99
(g100
(I0
tp1107
g102
tp1108
Rp1109
(I1
(I2
tp1110
g109
I00
S'r\xd1\xa1\xe1\xdep\x17\xc0f=\xef\xf2i\xc1\r\xc0'
p1111
tp1112
bsg114
I01
sbasg97
I01
sg98
g99
(g100
(I0
tp1113
g102
tp1114
Rp1115
(I1
(I2
tp1116
g109
I00
S'\xa3\xf4\xcf\xc8\xe6\x81\x15\xc0z\xcbZ\x86\x0f>\x13\xc0'
p1117
tp1118
bsg114
I00
sbag1058
ag966
asg97
I01
sg98
g99
(g100
(I0
tp1119
g102
tp1120
Rp1121
(I1
(I2
tp1122
g109
I00
S'\x1d\x1aJ\xe8\x81\x17\x12\xc0\x8e\x90r\xa4Hr\x0c\xc0'
p1123
tp1124
bsg114
I00
sbag1062
ag966
ag974
asg97
I01
sg98
g99
(g100
(I0
tp1125
g102
tp1126
Rp1127
(I1
(I2
tp1128
g109
I00
S'\xdc2W:\xa4[\x0e\xc0\x9b\x0b\xd5\xe7l&\x08\xc0'
p1129
tp1130
bsg114
I00
sbag914
asg97
I01
sg98
g99
(g100
(I0
tp1131
g102
tp1132
Rp1133
(I1
(I2
tp1134
g109
I00
S'\xa1V\n\xda\x9b\xad\x06\xc0\xdc-\x93\xc9,\xb8\xff\xbf'
p1135
tp1136
bsg114
I00
sbag926
ag1062
ag910
asg97
I00
sg98
g99
(g100
(I0
tp1137
g102
tp1138
Rp1139
(I1
(I2
tp1140
g109
I00
S'\xc1\x0b:9\xcbR\x0c\xc0u\x954)\x8eq\xf4\xbf'
p1141
tp1142
bsg114
I01
sbag1080
ag1072
asg97
I00
sg98
g99
(g100
(I0
tp1143
g102
tp1144
Rp1145
(I1
(I2
tp1146
g109
I00
S',h\xd2G\xf2\x1f\x12\xc0\x88X\x8d=,&\xe5\xbf'
p1147
tp1148
bsg114
I01
sbasg97
I00
sg98
g99
(g100
(I0
tp1149
g102
tp1150
Rp1151
(I1
(I2
tp1152
g109
I00
S'\xfa4\xb5{\x9br\x10\xc0Z|k,\x05\x9c\xcf?'
p1153
tp1154
bsg114
I01
sbag1080
asg97
I00
sg98
g99
(g100
(I0
tp1155
g102
tp1156
Rp1157
(I1
(I2
tp1158
g109
I00
S'\xee;\xca,A\x14\x14\xc0\xa7x\x04\xac\xb7Q\xe5?'
p1159
tp1160
bsg114
I01
sbag634
asg97
I00
sg98
g99
(g100
(I0
tp1161
g102
tp1162
Rp1163
(I1
(I2
tp1164
g109
I00
S'\xbc\x08\xad`\xeaf\x12\xc0"XV\x9ar/\xf9?'
p1165
tp1166
bsg114
I01
sbasg97
I00
sg98
g99
(g100
(I0
tp1167
g102
tp1168
Rp1169
(I1
(I2
tp1170
g109
I00
S'\x8a\xd5\x8f\x94\x93\xb9\x10\xc0\xf89U\xaf\x04\xdb\x03@'
p1171
tp1172
bsg114
I01
sbag642
ag626
asg97
I00
sg98
g99
(g100
(I0
tp1173
g102
tp1174
Rp1175
(I1
(I2
tp1176
g109
I00
S'-\x9d\xf5\xc6\xdb/\n\xc0\x94\xd3\x1a\x17W\x80\x00@'
p1177
tp1178
bsg114
I01
sbag622
ag898
ag906
asg97
I00
sg98
g99
(g100
(I0
tp1179
g102
tp1180
Rp1181
(I1
(I2
tp1182
g109
I00
S'\x91\x030_\x89\x8a\r\xc0Z\x8b\xe1i\x17z\xf2?'
p1183
tp1184
bsg114
I01
sbag666
ag618
asg97
I00
sg98
g99
(g100
(I0
tp1185
g102
tp1186
Rp1187
(I1
(I2
tp1188
g109
I00
S'\xaa\xf5\x05\xfd=G\x06\xc0$}\xd9rx\x89\xe7?'
p1189
tp1190
bsg114
I01
sbasg97
I00
sg98
g99
(g100
(I0
tp1191
g102
tp1192
Rp1193
(I1
(I2
tp1194
g109
I00
S'\x00\x00\x00\x00\x00\x00\x08\xc0\x00\x00\x00\x00\x00\x00\x00\x00'
p1195
tp1196
bsg114
I00
sbag610
ag662
ag926
asg97
I01
sg98
g99
(g100
(I0
tp1197
g102
tp1198
Rp1199
(I1
(I2
tp1200
g109
I00
S'\x00\x00\x00\x00\x00\x00\x00\xc0\x00\x00\x00\x00\x00\x00\x00\x00'
p1201
tp1202
bsg114
I00
sbag922
ag606
asg97
I01
sg98
g99
(g100
(I0
tp1203
g102
tp1204
Rp1205
(I1
(I2
tp1206
g109
I00
S'I\xf4\xdd\xecJC\xf2\xbf\x9fD\x19\xfe\xb3q\xda\xbf'
p1207
tp1208
bsg114
I00
sbasg97
I00
sg98
g99
(g100
(I0
tp1209
g102
tp1210
Rp1211
(I1
(I2
tp1212
g109
I00
S'w|I\xbfC\xe6\xed\xbfhk\x9dq\xf7\xe1\x8a?'
p1213
tp1214
bsg114
I00
sbag662
asg97
I01
sg98
g99
(g100
(I0
tp1215
g102
tp1216
Rp1217
(I1
(I2
tp1218
g109
I00
S'7;\x15\x1d\x02\x98\xe1\xbf\xb0\xe8\x88\xf9E\xc1\xe9?'
p1219
tp1220
bsg114
I00
sbag658
ag316
asg97
I01
sg98
g99
(g100
(I0
tp1221
g102
tp1222
Rp1223
(I1
(I2
tp1224
g109
I00
S'\x00\x00\x00\x00\x00\x00\x00\x00\x00\x00\x00\x00\x00\x00\x00@'
p1225
tp1226
bsg114
I00
sbag590
ag320
asg97
I01
sg98
g99
(g100
(I0
tp1227
g102
tp1228
Rp1229
(I1
(I2
tp1230
g109
I00
S'\x00\x00\x00\x00\x00\x00\x00\x00\x00\x00\x00\x00\x00\x00\x08@'
p1231
tp1232
bsg114
I00
sbag832
ag586
ag682
ag710
asg97
I01
sg98
g99
(g100
(I0
tp1233
g102
tp1234
Rp1235
(I1
(I2
tp1236
g109
I00
S"\xe7#\xd1\xf6\xd7\x85\xe3\xbf\x9c\xe0\xc5\xf2'V\x11@"
p1237
tp1238
bsg114
I00
sbag582
asg97
I01
sg98
g99
(g100
(I0
tp1239
g102
tp1240
Rp1241
(I1
(I2
tp1242
g109
I00
S'\xc6\x9d!\xfd\xcf-\xf5?\xb5#\xf6A\xf1\n\x10@'
p1243
tp1244
bsg114
I00
sbag840
ag578
asg97
I00
sg98
g99
(g100
(I0
tp1245
g102
tp1246
Rp1247
(I1
(I2
tp1248
g109
I00
S"\xf4\xe2'\xee\x9b\x16\xf4?\xfb\xc1\xc0)\x10\x00\x14@"
p1249
tp1250
bsg114
I01
sbasg97
I00
sg98
g99
(g100
(I0
tp1251
g102
tp1252
Rp1253
(I1
(I2
tp1254
g109
I00
S'\xa8\xe3B\xdeB\xcc\xfc?9Y\x0e6W\xed\x18@'
p1255
tp1256
bsg114
I01
sbasg97
I00
sg98
g99
(g100
(I0
tp1257
g102
tp1258
Rp1259
(I1
(I2
tp1260
g109
I00
S'\xa2\x11\xa7`\xed\x0f\x04@\x12LD\xd2\x15\x1a\x16@'
p1261
tp1262
bsg114
I01
sbasg97
I00
sg98
g99
(g100
(I0
tp1263
g102
tp1264
Rp1265
(I1
(I2
tp1266
g109
I00
S'\xf0+;(p\xb6\t@\xf9\x1b\x07\xcb\xfb\xee\x18@'
p1267
tp1268
bsg114
I01
sbasg97
I01
sg98
g99
(g100
(I0
tp1269
g102
tp1270
Rp1271
(I1
(I2
tp1272
g109
I00
S':\xd6y\x9f\xf1=\x0f@0\xf7\xc3\xb1\xd5,\x16@'
p1273
tp1274
bsg114
I00
sbag352
ag574
asg97
I01
sg98
g99
(g100
(I0
tp1275
g102
tp1276
Rp1277
(I1
(I2
tp1278
g109
I00
S'\xb0\xb0\x9ev\x1fB\x07@V&\xfdy"\x8e\x13@'
p1279
tp1280
bsg114
I00
sbag586
asg97
I00
sg98
g99
(g100
(I0
tp1281
g102
tp1282
Rp1283
(I1
(I2
tp1284
g109
I00
S'\xab\xb0\x11\x08!U\x01@nq\xdb\x0b\xfc\x83\x10@'
p1285
tp1286
bsg114
I00
sbag466
asg97
I01
sg98
g99
(g100
(I0
tp1287
g102
tp1288
Rp1289
(I1
(I2
tp1290
g109
I00
S"\xb8'\xd7\xd98\xf1\xfd?f\xbf\x1f\xf2\xa9\xd8\x08@"
p1291
tp1292
bsg114
I00
sbag594
asg97
I01
sg98
g99
(g100
(I0
tp1293
g102
tp1294
Rp1295
(I1
(I2
tp1296
g109
I00
S'\xc6\xe4\x02\xc1\x088\xf5?\x85\xf9\x8a\xb8g\xd9\x01@'
p1297
tp1298
bsg114
I00
sbag598
ag456
asg97
I01
sg98
g99
(g100
(I0
tp1299
g102
tp1300
Rp1301
(I1
(I2
tp1302
g109
I00
S'\xb4zm\x10\x7f\xf9\xe4?\x876\xcd\x11G\xfd\xef?'
p1303
tp1304
bsg114
I00
sbag606
ag1
(g2
g3
Ntp1305
Rp1306
(dp1307
g7
(lp1308
g58
ag312
ag50
asg97
I00
sg98
g99
(g100
(I0
tp1309
g102
tp1310
Rp1311
(I1
(I2
tp1312
g109
I00
S'\x07\r<\xbd\r\xc0\xe9?\x82\x88\x8d\xa2\xaf.\xd6\xbf'
p1313
tp1314
bsg114
I01
sbasg97
I00
sg98
g99
(g100
(I0
tp1315
g102
tp1316
Rp1317
(I1
(I2
tp1318
g109
I00
S'*\x14\xfd`g\xba\xd0?H\r\xc0b\xceA\xba?'
p1319
tp1320
bsg114
I00
sbasg97
I01
sg98
g99
(g100
(I0
tp1321
g102
tp1322
Rp1323
(I1
(I2
tp1324
g109
I00
S'\xdd\xfaO\x01\x8b\x05Q?\xf4\xe0\xbe\xc8p\x06\xe5\xbf'
p1325
tp1326
bsg114
I00
sbag58
asg97
I01
sg98
g99
(g100
(I0
tp1327
g102
tp1328
Rp1329
(I1
(I2
tp1330
g109
I00
S'\x00\x00\x00\x00\x00\x00\x00\x00\x00\x00\x00\x00\x00\x00\x00\xc0'
p1331
tp1332
bsg114
I00
sbag1306
asg97
I00
sg98
g99
(g100
(I0
tp1333
g102
tp1334
Rp1335
(I1
(I2
tp1336
g109
I00
S'\x93\x90\tq\xb6t\xe0?\xbceW\xf6\x18\xdb\xf4\xbf'
p1337
tp1338
bsg114
I01
sbasg97
I00
sg98
g99
(g100
(I0
tp1339
g102
tp1340
Rp1341
(I1
(I2
tp1342
g109
I00
S'\xe5\xcb8F\xc8\x89\xf7?\xf6\xa3p\x9c\xc4\x80\xf9\xbf'
p1343
tp1344
bsg114
I01
sbag5
ag1306
asg97
I00
sg98
g99
(g100
(I0
tp1345
g102
tp1346
Rp1347
(I1
(I2
tp1348
g109
I00
S'\x1f\nR\xecs/\xfc?\xb6@y\x1d\xafb\xe4\xbf'
p1349
tp1350
bsg114
I01
sbag120
asg97
I00
sg98
g99
(g100
(I0
tp1351
g102
tp1352
Rp1353
(I1
(I2
tp1354
g109
I00
S'\xdd\x06\x03}p\xbf\x05@*\xbd\xabi\x06\xae\xed\xbf'
p1355
tp1356
bsg114
I01
sbag14
ag38
ag34
asg97
I00
sg98
g99
(g100
(I0
tp1357
g102
tp1358
Rp1359
(I1
(I2
tp1360
g109
I00
S"\xaa\x08\xdd\x03'g\r@\xcf\x1c\xef\xda\xae|\xf3\xbf"
p1361
tp1362
bsg114
I01
sbag34
ag120
asg97
I00
sg98
g99
(g100
(I0
tp1363
g102
tp1364
Rp1365
(I1
(I2
tp1366
g109
I00
S'\x8di\xd00Q\x14\x0b@5\x90Q\xf4\rf\x01\xc0'
p1367
tp1368
bsg114
I01
sbag42
ag30
asg97
I00
sg98
g99
(g100
(I0
tp1369
g102
tp1370
Rp1371
(I1
(I2
tp1372
g109
I00
S'\xdd\xc1\\l\xfb\xce\x10@\xcaO\xb5A\xf2y\x00\xc0'
p1373
tp1374
bsg114
I01
sbag26
ag124
ag136
asg97
I00
sg98
g99
(g100
(I0
tp1375
g102
tp1376
Rp1377
(I1
(I2
tp1378
g109
I00
S'b\x17\xe8\x8a\x06^\x11@Dt\x0f\xb3\xdde\x08\xc0'
p1379
tp1380
bsg114
I01
sbag140
ag22
asg97
I00
sg98
g99
(g100
(I0
tp1381
g102
tp1382
Rp1383
(I1
(I2
tp1384
g109
I00
S'\x80d\xb1\xb0\xe7E\x17@<\x8e\xfe\xc3J\xbb\x06\xc0'
p1385
tp1386
bsg114
I00
sbasg97
I01
sg98
g99
(g100
(I0
tp1387
g102
tp1388
Rp1389
(I1
(I2
tp1390
g109
I00
S'\x90`\x82]\x1b\x8d\x15@\x00)&\x04\x88\xe1\x00\xc0'
p1391
tp1392
bsg114
I00
sbag34
ag402
asg97
I01
sg98
g99
(g100
(I0
tp1393
g102
tp1394
Rp1395
(I1
(I2
tp1396
g109
I00
S'\x9c\xb9r\xd6\x85\xb8\x13@S)\x8a\xa3q\x02\xf6\xbf'
p1397
tp1398
bsg114
I00
sbag398
ag42
asg97
I01
sg98
g99
(g100
(I0
tp1399
g102
tp1400
Rp1401
(I1
(I2
tp1402
g109
I00
S'\xdaj\x11h7/\x11@+-\x82[\xc6\xe1\xe6\xbf'
p1403
tp1404
bsg114
I00
sbag46
ag394
ag456
asg97
I01
sg98
g99
(g100
(I0
tp1405
g102
tp1406
Rp1407
(I1
(I2
tp1408
g109
I00
S'\x00\x00\x00\x00\x00\x00\x08@\x00\x00\x00\x00\x00\x00\x00\x00'
p1409
tp1410
bsg114
I00
sbag50
asg97
I00
sg98
g99
(g100
(I0
tp1411
g102
tp1412
Rp1413
(I1
(I2
tp1414
g109
I00
S'\x00\x00\x00\x00\x00\x00\x00@\x00\x00\x00\x00\x00\x00\x00\x00'
p1415
tp1416
bsg114
I00
sbag10
ag62
ag66
ag598
ag594
ag614
ag618
ag14
ag308
ag70
ag602
ag590
ag610
ag18
ag312
ag74
ag832
ag922
ag22
ag316
ag606
ag170
ag918
ag140
ag320
ag166
ag942
ag324
ag946
ag328
ag950
ag332
ag586
ag954
ag336
ag340
ag46
ag94
ag42
ag50
ag90
ag398
ag662
ag38
ag54
ag86
ag394
ag402
ag658
ag34
ag78
ag926
ag120
ag58
ag116
ag82
ag390
ag406
ag654
ag30
ag914
ag1306
ag124
ag128
ag174
ag386
ag444
ag422
ag650
ag26
ag136
ag1062
ag132
ag488
ag382
ag448
ag646
ag682
ag150
ag1058
ag158
ag452
ag642
ag710
ag154
ag1054
ag962
ag162
ag456
ag466
ag638
ag714
ag190
ag966
ag958
ag582
ag634
ag718
ag828
ag970
ag840
ag348
ag570
ag630
ag730
ag722
ag974
ag994
ag836
ag344
ag352
ag574
ag626
ag734
ag726
ag760
ag978
ag998
ag364
ag356
ag578
ag622
ag898
ag748
ag756
ag1002
ag360
ag666
ag902
ag744
ag752
ag374
ag906
ag776
ag378
ag910
ag1080
ag1076
ag1072
a.