(lp0
ccopy_reg
_reconstructor
p1
(cprocedural_city_generation.roadmap.Vertex
Vertex
p2
c__builtin__
object
p3
Ntp4
Rp5
(dp6
S'neighbours'
p7
(lp8
g1
(g2
g3
Ntp9
Rp10
(dp11
g7
(lp12
g5
ag1
(g2
g3
Ntp13
Rp14
(dp15
g7
(lp16
g10
ag1
(g2
g3
Ntp17
Rp18
(dp19
g7
(lp20
g1
(g2
g3
Ntp21
Rp22
(dp23
g7
(lp24
g1
(g2
g3
Ntp25
Rp26
(dp27
g7
(lp28
g22
ag1
(g2
g3
Ntp29
Rp30
(dp31
g7
(lp32
g1
(g2
g3
Ntp33
Rp34
(dp35
g7
(lp36
g1
(g2
g3
Ntp37
Rp38
(dp39
g7
(lp40
g1
(g2
g3
Ntp41
Rp42
(dp43
g7
(lp44
g22
ag38
asS'seed'
p45
I01
sS'coords'
p46
cnumpy.core.multiarray
_reconstruct
p47
(cnumpy
ndarray
p48
(I0
tp49
S'b'
p50
tp51
Rp52
(I1
(I2
tp53
cnumpy
dtype
p54
(S'f8'
p55
I0
I1
tp56
Rp57
(I3
S'<'
p58
NNNI-1
I-1
I0
tp59
bI00
S'\x1c\xc2\x93h\xdb\xee\x1e@+\x96\xc61\xaa\xc3\xf7\xbf'
p60
tp61
bsS'minor_road'
p62
I00
sbag1
(g2
g3
Ntp63
Rp64
(dp65
g7
(lp66
g38
ag1
(g2
g3
Ntp67
Rp68
(dp69
g7
(lp70
g1
(g2
g3
Ntp71
Rp72
(dp73
g7
(lp74
g68
ag1
(g2
g3
Ntp75
Rp76
(dp77
g7
(lp78
g1
(g2
g3
Ntp79
Rp80
(dp81
g7
(lp82
g68
ag1
(g2
g3
Ntp83
Rp84
(dp85
g7
(lp86
g80
ag1
(g2
g3
Ntp87
Rp88
(dp89
g7
(lp90
g84
ag1
(g2
g3
Ntp91
Rp92
(dp93
g7
(lp94
g88
ag1
(g2
g3
Ntp95
Rp96
(dp97
g7
(lp98
g92
ag1
(g2
g3
Ntp99
Rp100
(dp101
g7
(lp102
g1
(g2
g3
Ntp103
Rp104
(dp105
g7
(lp106
g1
(g2
g3
Ntp107
Rp108
(dp109
g7
(lp110
g1
(g2
g3
Ntp111
Rp112
(dp113
g7
(lp114
g1
(g2
g3
Ntp115
Rp116
(dp117
g7
(lp118
g1
(g2
g3
Ntp119
Rp120
(dp121
g7
(lp122
g1
(g2
g3
Ntp123
Rp124
(dp125
g7
(lp126
g1
(g2
g3
Ntp127
Rp128
(dp129
g7
(lp130
g1
(g2
g3
Ntp131
Rp132
(dp133
g7
(lp134
g1
(g2
g3
Ntp135
Rp136
(dp137
g7
(lp138
g132
ag1
(g2
g3
Ntp139
Rp140
(dp141
g7
(lp142
g136
ag1
(g2
g3
Ntp143
Rp144
(dp145
g7
(lp146
g1
(g2
g3
Ntp147
Rp148
(dp149
g7
(lp150
g144
ag1
(g2
g3
Ntp151
Rp152
(dp153
g7
(lp154
g1
(g2
g3
Ntp155
Rp156
(dp157
g7
(lp158
g152
ag1
(g2
g3
Ntp159
Rp160
(dp161
g7
(lp162
g1
(g2
g3
Ntp163
Rp164
(dp165
g7
(lp166
g1
(g2
g3
Ntp167
Rp168
(dp169
g7
(lp170
g1
(g2
g3
Ntp171
Rp172
(dp173
g7
(lp174
g1
(g2
g3
Ntp175
Rp176
(dp177
g7
(lp178
g1
(g2
g3
Ntp179
Rp180
(dp181
g7
(lp182
g1
(g2
g3
Ntp183
Rp184
(dp185
g7
(lp186
g180
ag1
(g2
g3
Ntp187
Rp188
(dp189
g7
(lp190
g184
ag1
(g2
g3
Ntp191
Rp192
(dp193
g7
(lp194
g1
(g2
g3
Ntp195
Rp196
(dp197
g7
(lp198
g144
ag192
ag1
(g2
g3
Ntp199
Rp200
(dp201
g7
(lp202
g1
(g2
g3
Ntp203
Rp204
(dp205
g7
(lp206
g1
(g2
g3
Ntp207
Rp208
(dp209
g7
(lp210
g1
(g2
g3
Ntp211
Rp212
(dp213
g7
(lp214
g208
ag1
(g2
g3
Ntp215
Rp216
(dp217
g7
(lp218
g212
ag208
ag200
asg45
I01
sg46
g47
(g48
(I0
tp219
g50
tp220
Rp221
(I1
(I2
tp222
g57
I00
S"1\xe6\xb5\x95w\xf6\xeb\xbf \x80Y'\xcf\x06\xfc?"
p223
tp224
bsg62
I00
sbag1
(g2
g3
Ntp225
Rp226
(dp227
g7
(lp228
g212
ag1
(g2
g3
Ntp229
Rp230
(dp231
g7
(lp232
g1
(g2
g3
Ntp233
Rp234
(dp235
g7
(lp236
g1
(g2
g3
Ntp237
Rp238
(dp239
g7
(lp240
g18
ag234
ag1
(g2
g3
Ntp241
Rp242
(dp243
g7
(lp244
g238
ag1
(g2
g3
Ntp245
Rp246
(dp247
g7
(lp248
g242
ag1
(g2
g3
Ntp249
Rp250
(dp251
g7
(lp252
g1
(g2
g3
Ntp253
Rp254
(dp255
g7
(lp256
g1
(g2
g3
Ntp257
Rp258
(dp259
g7
(lp260
g1
(g2
g3
Ntp261
Rp262
(dp263
g7
(lp264
g22
ag1
(g2
g3
Ntp265
Rp266
(dp267
g7
(lp268
g262
ag254
asg45
I01
sg46
g47
(g48
(I0
tp269
g50
tp270
Rp271
(I1
(I2
tp272
g57
I00
S'z\x12\xb9\xef+\xfd\x1f@\x15|\x9b\xa9\xf4d\x00@'
p273
tp274
bsg62
I00
sbag1
(g2
g3
Ntp275
Rp276
(dp277
g7
(lp278
g262
ag1
(g2
g3
Ntp279
Rp280
(dp281
g7
(lp282
g276
ag22
asg45
I00
sg46
g47
(g48
(I0
tp283
g50
tp284
Rp285
(I1
(I2
tp286
g57
I00
S'C\xd3\xd9fjE\x1e@\xa6\xa6\xf2\xc1\xe7Q\xe6\xbf'
p287
tp288
bsg62
I01
sbasg45
I00
sg46
g47
(g48
(I0
tp289
g50
tp290
Rp291
(I1
(I2
tp292
g57
I00
S'LA0v\xf94 @\xbc\xf6\x0b\x0bn\xce\xc2?'
p293
tp294
bsg62
I01
sbag258
asg45
I01
sg46
g47
(g48
(I0
tp295
g50
tp296
Rp297
(I1
(I2
tp298
g57
I00
S'\xc1\xedv\xda\x8b\t\x1d@\x92\x9c(~k\xd6\xe5?'
p299
tp300
bsg62
I00
sbag1
(g2
g3
Ntp301
Rp302
(dp303
g7
(lp304
g258
ag22
ag18
ag246
asg45
I00
sg46
g47
(g48
(I0
tp305
g50
tp306
Rp307
(I1
(I2
tp308
g57
I00
S'1\x9f\xfc\xf9B\x97\x17@(\xed\x8d>\xcaO\xd3?'
p309
tp310
bsg62
I01
sbag254
asg45
I00
sg46
g47
(g48
(I0
tp311
g50
tp312
Rp313
(I1
(I2
tp314
g57
I00
S'\x81\xfbDO\xe2\x8d\x19@m\xfez\xd4\x94\xc4\xf2?'
p315
tp316
bsg62
I01
sbag250
ag266
asg45
I00
sg46
g47
(g48
(I0
tp317
g50
tp318
Rp319
(I1
(I2
tp320
g57
I00
S'\xd1W\x8d\xa4\x81\x84\x1b@\xc8@\xa9\x8c\x9bZ\x00@'
p321
tp322
bsg62
I01
sbag246
ag1
(g2
g3
Ntp323
Rp324
(dp325
g7
(lp326
g250
ag1
(g2
g3
Ntp327
Rp328
(dp329
g7
(lp330
g324
ag1
(g2
g3
Ntp331
Rp332
(dp333
g7
(lp334
g328
ag1
(g2
g3
Ntp335
Rp336
(dp337
g7
(lp338
g332
ag1
(g2
g3
Ntp339
Rp340
(dp341
g7
(lp342
g336
ag328
ag1
(g2
g3
Ntp343
Rp344
(dp345
g7
(lp346
g340
ag1
(g2
g3
Ntp347
Rp348
(dp349
g7
(lp350
g344
ag1
(g2
g3
Ntp351
Rp352
(dp353
g7
(lp354
g348
ag1
(g2
g3
Ntp355
Rp356
(dp357
g7
(lp358
g344
ag352
ag336
ag1
(g2
g3
Ntp359
Rp360
(dp361
g7
(lp362
g1
(g2
g3
Ntp363
Rp364
(dp365
g7
(lp366
g352
ag1
(g2
g3
Ntp367
Rp368
(dp369
g7
(lp370
g364
ag1
(g2
g3
Ntp371
Rp372
(dp373
g7
(lp374
g368
ag352
ag1
(g2
g3
Ntp375
Rp376
(dp377
g7
(lp378
g1
(g2
g3
Ntp379
Rp380
(dp381
g7
(lp382
g1
(g2
g3
Ntp383
Rp384
(dp385
g7
(lp386
g380
ag1
(g2
g3
Ntp387
Rp388
(dp389
g7
(lp390
g230
ag1
(g2
g3
Ntp391
Rp392
(dp393
g7
(lp394
g1
(g2
g3
Ntp395
Rp396
(dp397
g7
(lp398
g1
(g2
g3
Ntp399
Rp400
(dp401
g7
(lp402
g192
ag396
ag200
ag1
(g2
g3
Ntp403
Rp404
(dp405
g7
(lp406
g400
ag1
(g2
g3
Ntp407
Rp408
(dp409
g7
(lp410
g404
ag396
ag1
(g2
g3
Ntp411
Rp412
(dp413
g7
(lp414
g1
(g2
g3
Ntp415
Rp416
(dp417
g7
(lp418
g1
(g2
g3
Ntp419
Rp420
(dp421
g7
(lp422
g1
(g2
g3
Ntp423
Rp424
(dp425
g7
(lp426
g420
ag1
(g2
g3
Ntp427
Rp428
(dp429
g7
(lp430
g424
ag1
(g2
g3
Ntp431
Rp432
(dp433
g7
(lp434
g428
asg45
I01
sg46
g47
(g48
(I0
tp435
g50
tp436
Rp437
(I1
(I2
tp438
g57
I00
S'\xda\x80\xd5\xf5\x8c\x1b\x1f\xc0\x12\xe1J3p\xe2\x1c@'
p439
tp440
bsg62
I00
sbasg45
I01
sg46
g47
(g48
(I0
tp441
g50
tp442
Rp443
(I1
(I2
tp444
g57
I00
S'O\xc5F\x00\x881\x1b\xc0\xa3vX\x00\xea\xfd\x17@'
p445
tp446
bsg62
I00
sbasg45
I01
sg46
g47
(g48
(I0
tp447
g50
tp448
Rp449
(I1
(I2
tp450
g57
I00
S'\xdeR\tu\xa2b\x17\xc0\x95\xa7K\x12K;\x13@'
p451
tp452
bsg62
I00
sbag416
ag1
(g2
g3
Ntp453
Rp454
(dp455
g7
(lp456
g1
(g2
g3
Ntp457
Rp458
(dp459
g7
(lp460
g1
(g2
g3
Ntp461
Rp462
(dp463
g7
(lp464
g412
ag1
(g2
g3
Ntp465
Rp466
(dp467
g7
(lp468
g462
ag404
ag188
asg45
I00
sg46
g47
(g48
(I0
tp469
g50
tp470
Rp471
(I1
(I2
tp472
g57
I00
S'DP\xe7\xd8\xdc8\x06\xc0W\xf0]\x1c\x041\x04@'
p473
tp474
bsg62
I00
sbag458
asg45
I00
sg46
g47
(g48
(I0
tp475
g50
tp476
Rp477
(I1
(I2
tp478
g57
I00
S'r|>\x96\xf5H\t\xc0<\xc2\xad%\xf6\xcd\x06@'
p479
tp480
bsg62
I01
sbag454
ag416
asg45
I00
sg46
g47
(g48
(I0
tp481
g50
tp482
Rp483
(I1
(I2
tp484
g57
I00
S'\x03`%:\xfe^\x0f\xc0E\xa3\x05V/\xff\x0b@'
p485
tp486
bsg62
I01
sbag184
ag420
asg45
I00
sg46
g47
(g48
(I0
tp487
g50
tp488
Rp489
(I1
(I2
tp490
g57
I00
S'\xd6\xe8\x8b\x0f\xa4\x7f\x11\xc0\x16\xc6\xdd&\x1a\xbf\x07@'
p491
tp492
bsg62
I00
sbasg45
I00
sg46
g47
(g48
(I0
tp493
g50
tp494
Rp495
(I1
(I2
tp496
g57
I00
S'\xd6\x1b\xf2L\xb8\x8b\x13\xc0\x98E]\xc0L\xdd\x0c@'
p497
tp498
bsg62
I00
sbag1
(g2
g3
Ntp499
Rp500
(dp501
g7
(lp502
g416
ag1
(g2
g3
Ntp503
Rp504
(dp505
g7
(lp506
g500
ag1
(g2
g3
Ntp507
Rp508
(dp509
g7
(lp510
g504
ag1
(g2
g3
Ntp511
Rp512
(dp513
g7
(lp514
g508
ag1
(g2
g3
Ntp515
Rp516
(dp517
g7
(lp518
g512
asg45
I00
sg46
g47
(g48
(I0
tp519
g50
tp520
Rp521
(I1
(I2
tp522
g57
I00
S'X\xf0\xe9\xab\r\x8b\xf6\xbf\xc5\xe7%\xb5H\xb0\x1f@'
p523
tp524
bsg62
I01
sbag1
(g2
g3
Ntp525
Rp526
(dp527
g7
(lp528
g512
ag1
(g2
g3
Ntp529
Rp530
(dp531
g7
(lp532
g526
ag1
(g2
g3
Ntp533
Rp534
(dp535
g7
(lp536
g530
ag512
asg45
I00
sg46
g47
(g48
(I0
tp537
g50
tp538
Rp539
(I1
(I2
tp540
g57
I00
S'@z\xfb,\xebv\xa5\xbf\xa5I\x9c\x07\xa0\x91 @'
p541
tp542
bsg62
I01
sbag376
asg45
I00
sg46
g47
(g48
(I0
tp543
g50
tp544
Rp545
(I1
(I2
tp546
g57
I00
S'\xf6\n\xfd\x07\xc5S\xea?|\xa6\xf1\xf1\xd0 \x1f@'
p547
tp548
bsg62
I01
sbasg45
I00
sg46
g47
(g48
(I0
tp549
g50
tp550
Rp551
(I1
(I2
tp552
g57
I00
S'\nI\x8b;\x98\x80\xd4?)\x0e\x98zj\xab\x1b@'
p553
tp554
bsg62
I01
sbag534
asg45
I00
sg46
g47
(g48
(I0
tp555
g50
tp556
Rp557
(I1
(I2
tp558
g57
I00
S'\x15\x1e\x07\x9d\xe7j\xe1\xbf\xf7\xfa\xde\x97\xd9\xad\x1d@'
p559
tp560
bsg62
I01
sbasg45
I00
sg46
g47
(g48
(I0
tp561
g50
tp562
Rp563
(I1
(I2
tp564
g57
I00
S'CB\x9fC0\xbf\xf0\xbf\xa4b\x85 s8\x1a@'
p565
tp566
bsg62
I01
sbasg45
I01
sg46
g47
(g48
(I0
tp567
g50
tp568
Rp569
(I1
(I2
tp570
g57
I00
S'\x90\xa3\x05!\xca\x94\xfe\xbfrO\xcc=\xe2:\x1c@'
p571
tp572
bsg62
I00
sbasg45
I01
sg46
g47
(g48
(I0
tp573
g50
tp574
Rp575
(I1
(I2
tp576
g57
I00
S'\xb02c\xef\x97e\x05\xc0\xcf\xfa\xa8D\xa9\xf9\x16@'
p577
tp578
bsg62
I00
sbag412
ag458
asg45
I00
sg46
g47
(g48
(I0
tp579
g50
tp580
Rp581
(I1
(I2
tp582
g57
I00
S'$O\xf2&]E\r\xc0\x033\\\xc1G\\\x12@'
p583
tp584
bsg62
I00
sbag408
ag462
asg45
I01
sg46
g47
(g48
(I0
tp585
g50
tp586
Rp587
(I1
(I2
tp588
g57
I00
S'j\x9b\xe6e\xbc\x17\x04\xc0\xcc\xa5\x94\xc9\xfe\xe3\x0c@'
p589
tp590
bsg62
I00
sbasg45
I00
sg46
g47
(g48
(I0
tp591
g50
tp592
Rp593
(I1
(I2
tp594
g57
I00
S'\x1bG\xc3\x85\xd3p\x00\xc0\xa8\xa2e\x8bb\xc6\t@'
p595
tp596
bsg62
I00
sbag466
asg45
I00
sg46
g47
(g48
(I0
tp597
g50
tp598
Rp599
(I1
(I2
tp600
g57
I00
S'tJ|\xec\x95\xa2\x03\xc0&\xa6\x93\xe7\x9e\xb0\x06@'
p601
tp602
bsg62
I01
sbasg45
I01
sg46
g47
(g48
(I0
tp603
g50
tp604
Rp605
(I1
(I2
tp606
g57
I00
S'#\xab\x1dk\xfb,\xfc\xbf\x92<\x87\xf5/\xf2\x00@'
p607
tp608
bsg62
I00
sbag392
ag408
asg45
I00
sg46
g47
(g48
(I0
tp609
g50
tp610
Rp611
(I1
(I2
tp612
g57
I00
S'\x9c=\x14\xfdD\xfd\xf4\xbf\x9cd\xb1s\xbd\xb3\x04@'
p613
tp614
bsg62
I00
sbag388
asg45
I01
sg46
g47
(g48
(I0
tp615
g50
tp616
Rp617
(I1
(I2
tp618
g57
I00
S'\x08HV\x1c\xd0\xdc\xe6\xbf\xa8\x9c}\xf8\xa0\xb2\t@'
p619
tp620
bsg62
I00
sbag384
asg45
I00
sg46
g47
(g48
(I0
tp621
g50
tp622
Rp623
(I1
(I2
tp624
g57
I00
S"\xd4^\x1c#\xa9'\xd5\xbf\x988\x1cr2\xe6\r@"
p625
tp626
bsg62
I00
sbasg45
I01
sg46
g47
(g48
(I0
tp627
g50
tp628
Rp629
(I1
(I2
tp630
g57
I00
S'\xc0\x9d\xb3|\xac\xe9\xcc?\x07\xfd\xa61\x8c\xfe\x11@'
p631
tp632
bsg62
I00
sbag376
ag1
(g2
g3
Ntp633
Rp634
(dp635
g7
(lp636
g380
asg45
I00
sg46
g47
(g48
(I0
tp637
g50
tp638
Rp639
(I1
(I2
tp640
g57
I00
S'\xa8Qt\xea\x17n\xb3?:D\\\xc9\xe5H\x19@'
p641
tp642
bsg62
I01
sbasg45
I01
sg46
g47
(g48
(I0
tp643
g50
tp644
Rp645
(I1
(I2
tp646
g57
I00
S'\x1fR^u\xf4u\xef?Gz\x1d\xde\xea\x9f\x17@'
p647
tp648
bsg62
I00
sbag530
ag372
asg45
I01
sg46
g47
(g48
(I0
tp649
g50
tp650
Rp651
(I1
(I2
tp652
g57
I00
S'\xb2YFg\x9f\x89\xf8?\xb2\xc0\xebf#\x88\x1d@'
p653
tp654
bsg62
I00
sbasg45
I00
sg46
g47
(g48
(I0
tp655
g50
tp656
Rp657
(I1
(I2
tp658
g57
I00
S'v\x97\xb5\xcf\x99\x11\x05@\xd6\x8br\xe8Z\xed\x1a@'
p659
tp660
bsg62
I01
sbasg45
I00
sg46
g47
(g48
(I0
tp661
g50
tp662
Rp663
(I1
(I2
tp664
g57
I00
S'\x16PFz\xd8\xfe\x08@\x9fl\xa8y\x83i\x1e@'
p665
tp666
bsg62
I01
sbag360
ag1
(g2
g3
Ntp667
Rp668
(dp669
g7
(lp670
g1
(g2
g3
Ntp671
Rp672
(dp673
g7
(lp674
g360
ag668
ag1
(g2
g3
Ntp675
Rp676
(dp677
g7
(lp678
g1
(g2
g3
Ntp679
Rp680
(dp681
g7
(lp682
g1
(g2
g3
Ntp683
Rp684
(dp685
g7
(lp686
g1
(g2
g3
Ntp687
Rp688
(dp689
g7
(lp690
g336
ag684
ag676
asg45
I00
sg46
g47
(g48
(I0
tp691
g50
tp692
Rp693
(I1
(I2
tp694
g57
I00
S'f\xca\xc4\xf0\xe5\xf3\x16@\xafW\xcfy\xa5\x85\x18@'
p695
tp696
bsg62
I01
sbag1
(g2
g3
Ntp697
Rp698
(dp699
g7
(lp700
g1
(g2
g3
Ntp701
Rp702
(dp703
g7
(lp704
g332
ag1
(g2
g3
Ntp705
Rp706
(dp707
g7
(lp708
g1
(g2
g3
Ntp709
Rp710
(dp711
g7
(lp712
g324
ag706
asg45
I00
sg46
g47
(g48
(I0
tp713
g50
tp714
Rp715
(I1
(I2
tp716
g57
I00
S'!\xb4\xd5\xf9 {\x1d@Z\x02\x15\xaf\xecR\x07@'
p717
tp718
bsg62
I01
sbag702
ag1
(g2
g3
Ntp719
Rp720
(dp721
g7
(lp722
g698
ag706
asg45
I00
sg46
g47
(g48
(I0
tp723
g50
tp724
Rp725
(I1
(I2
tp726
g57
I00
S'`63\xd2/\xb4 @\xbfB\xf6y\xc7\xa1\x12@'
p727
tp728
bsg62
I01
sbasg45
I00
sg46
g47
(g48
(I0
tp729
g50
tp730
Rp731
(I1
(I2
tp732
g57
I00
S'q\x10\x1eO\xc0q\x1f@\xec\xc3\x80\xd1=K\x0e@'
p733
tp734
bsg62
I01
sbag324
ag698
asg45
I00
sg46
g47
(g48
(I0
tp735
g50
tp736
Rp737
(I1
(I2
tp738
g57
I00
S'\xa8/\xe8\xbd\x97\xf5\x1b@F\xbe\x08>>\x1c\x11@'
p739
tp740
bsg62
I01
sbag684
ag720
ag1
(g2
g3
Ntp741
Rp742
(dp743
g7
(lp744
g680
ag698
asg45
I00
sg46
g47
(g48
(I0
tp745
g50
tp746
Rp747
(I1
(I2
tp748
g57
I00
S'H\xe8xh\xd6\xe2\x1f@\xd8\x7ft`\x8f\x14\x18@'
p749
tp750
bsg62
I01
sbasg45
I00
sg46
g47
(g48
(I0
tp751
g50
tp752
Rp753
(I1
(I2
tp754
g57
I00
S'\xf8\x8b0\x137\xec\x1d@\x0f\x9f>\xcff\x98\x14@'
p755
tp756
bsg62
I01
sbag680
asg45
I00
sg46
g47
(g48
(I0
tp757
g50
tp758
Rp759
(I1
(I2
tp760
g57
I00
S'/\xab\xfa\x81\x0ep\x1a@_\xfb\x86$\x06\x8f\x16@'
p761
tp762
bsg62
I01
sbag676
ag742
ag1
(g2
g3
Ntp763
Rp764
(dp765
g7
(lp766
g1
(g2
g3
Ntp767
Rp768
(dp769
g7
(lp770
g676
ag764
asg45
I00
sg46
g47
(g48
(I0
tp771
g50
tp772
Rp773
(I1
(I2
tp774
g57
I00
S'\x06\x83U\x9b$\xe1\x1a@A\x19;\x9c\xf6}\x1f@'
p775
tp776
bsg62
I01
sbag1
(g2
g3
Ntp777
Rp778
(dp779
g7
(lp780
g764
asg45
I00
sg46
g47
(g48
(I0
tp781
g50
tp782
Rp783
(I1
(I2
tp784
g57
I00
S'\x0f\xe0\xe9@\xf6) @\xddN\x14\xec\xbf\x81 @'
p785
tp786
bsg62
I01
sbag680
asg45
I00
sg46
g47
(g48
(I0
tp787
g50
tp788
Rp789
(I1
(I2
tp790
g57
I00
S'\xcfc\x8b,M]\x1e@\xf1\xbc\xf2FW\x87\x1d@'
p791
tp792
bsg62
I01
sbasg45
I00
sg46
g47
(g48
(I0
tp793
g50
tp794
Rp795
(I1
(I2
tp796
g57
I00
S'\x7f\x07C\xd7\xadf\x1c@(\xdc\xbc\xb5.\x0b\x1a@'
p797
tp798
bsg62
I01
sbag688
ag768
ag672
asg45
I00
sg46
g47
(g48
(I0
tp799
g50
tp800
Rp801
(I1
(I2
tp802
g57
I00
S'\xb6&\rF\x85\xea\x18@x8\x05\x0b\xce\x01\x1c@'
p803
tp804
bsg62
I01
sbasg45
I00
sg46
g47
(g48
(I0
tp805
g50
tp806
Rp807
(I1
(I2
tp808
g57
I00
S'\xedE\xd7\xb4\\n\x15@\xc8\x94M`m\xf8\x1d@'
p809
tp810
bsg62
I01
sbag364
asg45
I00
sg46
g47
(g48
(I0
tp811
g50
tp812
Rp813
(I1
(I2
tp814
g57
I00
S'$e\xa1#4\xf2\x11@\x18\xf1\x95\xb5\x0c\xef\x1f@'
p815
tp816
bsg62
I01
sbasg45
I00
sg46
g47
(g48
(I0
tp817
g50
tp818
Rp819
(I1
(I2
tp820
g57
I00
S'\xa8\x11\xb2\x9c)\xf7\x0f@O\x10`$\xe4r\x1c@'
p821
tp822
bsg62
I01
sbag672
ag356
asg45
I00
sg46
g47
(g48
(I0
tp823
g50
tp824
Rp825
(I1
(I2
tp826
g57
I00
S'\x9d\xe9\x8e_\xbdw\x13@\xff\xb3\x17\xcfD|\x1a@'
p827
tp828
bsg62
I01
sbasg45
I00
sg46
g47
(g48
(I0
tp829
g50
tp830
Rp831
(I1
(I2
tp832
g57
I00
S'M\x8dF\n\x1e\x81\x11@6\xd3\xe1=\x1c\x00\x17@'
p833
tp834
bsg62
I01
sbag364
ag372
asg45
I00
sg46
g47
(g48
(I0
tp835
g50
tp836
Rp837
(I1
(I2
tp838
g57
I00
S'\x08Y!\xf2\xea\t\x0c@\x86/*\x93\xbb\xf6\x18@'
p839
tp840
bsg62
I01
sbasg45
I00
sg46
g47
(g48
(I0
tp841
g50
tp842
Rp843
(I1
(I2
tp844
g57
I00
S'h\xa0\x90G\xac\x1c\x08@\xbdN\xf4\x01\x93z\x15@'
p845
tp846
bsg62
I01
sbag1
(g2
g3
Ntp847
Rp848
(dp849
g7
(lp850
g344
ag1
(g2
g3
Ntp851
Rp852
(dp853
g7
(lp854
g848
ag340
ag1
(g2
g3
Ntp855
Rp856
(dp857
g7
(lp858
g852
ag242
ag1
(g2
g3
Ntp859
Rp860
(dp861
g7
(lp862
g856
ag234
asg45
I00
sg46
g47
(g48
(I0
tp863
g50
tp864
Rp865
(I1
(I2
tp866
g57
I00
S'\xba\xf0\xda\x14\x80:\x07@\xb6a\x80\x14E\x17\t@'
p867
tp868
bsg62
I01
sbasg45
I00
sg46
g47
(g48
(I0
tp869
g50
tp870
Rp871
(I1
(I2
tp872
g57
I00
S'L\xb2F7\xd12\x0e@\x16\xa9\xefi\x06*\x05@'
p873
tp874
bsg62
I01
sbasg45
I00
sg46
g47
(g48
(I0
tp875
g50
tp876
Rp877
(I1
(I2
tp878
g57
I00
S'v\xb5\xeb\xf0\x07\x10\x11@\xa8j[\x8cW"\x0c@'
p879
tp880
bsg62
I01
sbasg45
I00
sg46
g47
(g48
(I0
tp881
g50
tp882
Rp883
(I1
(I2
tp884
g57
I00
S"Z\xa9k\xbf\xbe'\x0b@\xa4\x11v\x1b\xcb\x07\x10@"
p885
tp886
bsg62
I01
sbag356
asg45
I00
sg46
g47
(g48
(I0
tp887
g50
tp888
Rp889
(I1
(I2
tp890
g57
I00
S'\xfaa\xfci\xfd\x14\x0f@m\xf2\xab\xac\xf3\x83\x13@'
p891
tp892
bsg62
I01
sbag852
asg45
I00
sg46
g47
(g48
(I0
tp893
g50
tp894
Rp895
(I1
(I2
tp896
g57
I00
S'\xc6\x114F\xa7\x06\x13@\x1d\x96cWT\x8d\x11@'
p897
tp898
bsg62
I01
sbag688
ag356
asg45
I00
sg46
g47
(g48
(I0
tp899
g50
tp900
Rp901
(I1
(I2
tp902
g57
I00
S'\x16n|\x9bF\xfd\x14@\xe6v\x99\xe8|\t\x15@'
p903
tp904
bsg62
I01
sbag702
asg45
I00
sg46
g47
(g48
(I0
tp905
g50
tp906
Rp907
(I1
(I2
tp908
g57
I00
S'\xdfN\xb2,oy\x18@\x96\x1aQ\x93\xdd\x12\x13@'
p909
tp910
bsg62
I01
sbag340
asg45
I00
sg46
g47
(g48
(I0
tp911
g50
tp912
Rp913
(I1
(I2
tp914
g57
I00
S'\x8f\xf2i\xd7\xcf\x82\x16@\x9as6\x04j-\x0f@'
p915
tp916
bsg62
I01
sbag710
ag702
asg45
I00
sg46
g47
(g48
(I0
tp917
g50
tp918
Rp919
(I1
(I2
tp920
g57
I00
S'X\xd3\x9fh\xf8\xfe\x19@\xfa\xba\xa5Y+@\x0b@'
p921
tp922
bsg62
I01
sbasg45
I00
sg46
g47
(g48
(I0
tp923
g50
tp924
Rp925
(I1
(I2
tp926
g57
I00
S'\x08wW\x13Y\x08\x18@h\xf997\xdaG\x04@'
p927
tp928
bsg62
I01
sbag302
asg45
I00
sg46
g47
(g48
(I0
tp929
g50
tp930
Rp931
(I1
(I2
tp932
g57
I00
S'\xf2\xb2b2\xf4\x92\x14@j\xfc\x0c\xe6\x97"\xf6?'
p933
tp934
bsg62
I01
sbag856
asg45
I00
sg46
g47
(g48
(I0
tp935
g50
tp936
Rp937
(I1
(I2
tp938
g57
I00
S';\x9a\x0f\x1ay7\x11@\r\xe8\xeb3:\xd5\xfe?'
p939
tp940
bsg62
I01
sbasg45
I01
sg46
g47
(g48
(I0
tp941
g50
tp942
Rp943
(I1
(I2
tp944
g57
I00
S'\xa4\xbe/\r\xa1\x15\x0e@1\x85\x9f\xd2Mg\xf1?'
p945
tp946
bsg62
I00
sbag230
ag860
asg45
I01
sg46
g47
(g48
(I0
tp947
g50
tp948
Rp949
(I1
(I2
tp950
g57
I00
S'8O\\64\xaf\x03@\xac\xf5Ip\n\xe0\xfe?'
p951
tp952
bsg62
I00
sbag388
ag226
asg45
I01
sg46
g47
(g48
(I0
tp953
g50
tp954
Rp955
(I1
(I2
tp956
g57
I00
S'\xd3\xd1\x17\xf4\xe2\x91\xf2?e\xaa\x13BH,\x06@'
p957
tp958
bsg62
I00
sbasg45
I00
sg46
g47
(g48
(I0
tp959
g50
tp960
Rp961
(I1
(I2
tp962
g57
I00
S'L\xd42Y\x1d\x17\xe0?\xfa\x1c\xa4\xd4\xd05\x04@'
p963
tp964
bsg62
I01
sbasg45
I01
sg46
g47
(g48
(I0
tp965
g50
tp966
Rp967
(I1
(I2
tp968
g57
I00
S'\x00\x00\x00\x00\x00\x00\x00\x00\x00\x00\x00\x00\x00\x00\x08@'
p969
tp970
bsg62
I00
sbag204
ag216
asg45
I01
sg46
g47
(g48
(I0
tp971
g50
tp972
Rp973
(I1
(I2
tp974
g57
I00
S'\x00\x00\x00\x00\x00\x00\x00\x00\x00\x00\x00\x00\x00\x00\x00@'
p975
tp976
bsg62
I00
sbag144
ag200
asg45
I01
sg46
g47
(g48
(I0
tp977
g50
tp978
Rp979
(I1
(I2
tp980
g57
I00
S'\xa3\xa5\xacP`9\xee\xbf\xf40(\x9bG8\xea?'
p981
tp982
bsg62
I00
sbag196
ag216
ag400
asg45
I00
sg46
g47
(g48
(I0
tp983
g50
tp984
Rp985
(I1
(I2
tp986
g57
I00
S'V\xdd\xbf\xae\xb5-\xf4\xbfCX\xcc2~+\xf5?'
p987
tp988
bsg62
I00
sbasg45
I00
sg46
g47
(g48
(I0
tp989
g50
tp990
Rp991
(I1
(I2
tp992
g57
I00
S'\x7fQ&\xf7v\xb7\x01\xc0\xf4.\x7f\xa7\xa5*\xd1?'
p993
tp994
bsg62
I00
sbag400
ag188
asg45
I00
sg46
g47
(g48
(I0
tp995
g50
tp996
Rp997
(I1
(I2
tp998
g57
I00
S'\x04\xf4\x7f;)\x85\x07\xc0\x05\xe2\xbf\x14\xe7\xcc\xf2?'
p999
tp1000
bsg62
I00
sbag466
asg45
I00
sg46
g47
(g48
(I0
tp1001
g50
tp1002
Rp1003
(I1
(I2
tp1004
g57
I00
S"\xc6\x96'\xfe\x19\xd3\x0b\xc0\xe9\xf8b\xfb\xc0\x8f\xfd?"
p1005
tp1006
bsg62
I00
sbag454
asg45
I00
sg46
g47
(g48
(I0
tp1007
g50
tp1008
Rp1009
(I1
(I2
tp1010
g57
I00
S'*\xa7/\x8dC<\x0f\xc0\xf2\x90{pT\x0b\x03@'
p1011
tp1012
bsg62
I00
sbag176
ag1
(g2
g3
Ntp1013
Rp1014
(dp1015
g7
(lp1016
g180
ag160
asg45
I01
sg46
g47
(g48
(I0
tp1017
g50
tp1018
Rp1019
(I1
(I2
tp1020
g57
I00
S'\xb4\xb4\x86\xcf\x15\x80\x11\xc0\x00\xaa>6;_\x96?'
p1021
tp1022
bsg62
I00
sbag168
asg45
I00
sg46
g47
(g48
(I0
tp1023
g50
tp1024
Rp1025
(I1
(I2
tp1026
g57
I00
S'Q*T%\xa9\x94\x14\xc0\xf6\xa5\xcf\xb1\xf74\xf6?'
p1027
tp1028
bsg62
I00
sbag1
(g2
g3
Ntp1029
Rp1030
(dp1031
g7
(lp1032
g176
asg45
I01
sg46
g47
(g48
(I0
tp1033
g50
tp1034
Rp1035
(I1
(I2
tp1036
g57
I00
S')\xb7\r5D\x0e \xc0@\x9cR\xa5@\x9a\xab?'
p1037
tp1038
bsg62
I00
sbag172
asg45
I01
sg46
g47
(g48
(I0
tp1039
g50
tp1040
Rp1041
(I1
(I2
tp1042
g57
I00
S'\x14\xe2\xec\x84\xa3\x1e\x1a\xc0d\x89\x8dE(o\xe3?'
p1043
tp1044
bsg62
I00
sbag168
asg45
I00
sg46
g47
(g48
(I0
tp1045
g50
tp1046
Rp1047
(I1
(I2
tp1048
g57
I00
S'5\xbb\xa0\xd3\xb1y\x18\xc0\xac\xd9\xff\xfc\xe7@\xd3\xbf'
p1049
tp1050
bsg62
I01
sbag180
ag164
ag1
(g2
g3
Ntp1051
Rp1052
(dp1053
g7
(lp1054
g1
(g2
g3
Ntp1055
Rp1056
(dp1057
g7
(lp1058
g1
(g2
g3
Ntp1059
Rp1060
(dp1061
g7
(lp1062
g1
(g2
g3
Ntp1063
Rp1064
(dp1065
g7
(lp1066
g1
(g2
g3
Ntp1067
Rp1068
(dp1069
g7
(lp1070
g1
(g2
g3
Ntp1071
Rp1072
(dp1073
g7
(lp1074
g1
(g2
g3
Ntp1075
Rp1076
(dp1077
g7
(lp1078
g1072
ag1
(g2
g3
Ntp1079
Rp1080
(dp1081
g7
(lp1082
g1
(g2
g3
Ntp1083
Rp1084
(dp1085
g7
(lp1086
g1
(g2
g3
Ntp1087
Rp1088
(dp1089
g7
(lp1090
g1
(g2
g3
Ntp1091
Rp1092
(dp1093
g7
(lp1094
g1
(g2
g3
Ntp1095
Rp1096
(dp1097
g7
(lp1098
g1092
ag1
(g2
g3
Ntp1099
Rp1100
(dp1101
g7
(lp1102
g1096
ag1
(g2
g3
Ntp1103
Rp1104
(dp1105
g7
(lp1106
g1
(g2
g3
Ntp1107
Rp1108
(dp1109
g7
(lp1110
g1092
ag1
(g2
g3
Ntp1111
Rp1112
(dp1113
g7
(lp1114
g1108
ag1
(g2
g3
Ntp1115
Rp1116
(dp1117
g7
(lp1118
g1084
ag1
(g2
g3
Ntp1119
Rp1120
(dp1121
g7
(lp1122
g132
ag1
(g2
g3
Ntp1123
Rp1124
(dp1125
g7
(lp1126
g1120
ag1
(g2
g3
Ntp1127
Rp1128
(dp1129
g7
(lp1130
g1124
ag132
asg45
I00
sg46
g47
(g48
(I0
tp1131
g50
tp1132
Rp1133
(I1
(I2
tp1134
g57
I00
S'\x0c\x16\x1d\xab\x13\x04\xc9?\x8a\x14Y\xe4\xf9\xba\x10\xc0'
p1135
tp1136
bsg62
I01
sbag1
(g2
g3
Ntp1137
Rp1138
(dp1139
g7
(lp1140
g1
(g2
g3
Ntp1141
Rp1142
(dp1143
g7
(lp1144
g1112
ag1138
ag1
(g2
g3
Ntp1145
Rp1146
(dp1147
g7
(lp1148
g1
(g2
g3
Ntp1149
Rp1150
(dp1151
g7
(lp1152
g1138
ag124
ag1146
asg45
I00
sg46
g47
(g48
(I0
tp1153
g50
tp1154
Rp1155
(I1
(I2
tp1156
g57
I00
S'0\xa1>\xff\xfb\xc6\xe7?;!\x8f&\xc9\x08\x19\xc0'
p1157
tp1158
bsg62
I01
sbag1
(g2
g3
Ntp1159
Rp1160
(dp1161
g7
(lp1162
g1
(g2
g3
Ntp1163
Rp1164
(dp1165
g7
(lp1166
g1
(g2
g3
Ntp1167
Rp1168
(dp1169
g7
(lp1170
g1104
ag1164
ag1
(g2
g3
Ntp1171
Rp1172
(dp1173
g7
(lp1174
g1168
ag1
(g2
g3
Ntp1175
Rp1176
(dp1177
g7
(lp1178
g1172
ag1
(g2
g3
Ntp1179
Rp1180
(dp1181
g7
(lp1182
g1160
ag1176
ag1168
asg45
I00
sg46
g47
(g48
(I0
tp1183
g50
tp1184
Rp1185
(I1
(I2
tp1186
g57
I00
S'Z0\x08\x8c\x14\xd9\xfc\xbfL\x05\xda\x08\x97a\x1f\xc0'
p1187
tp1188
bsg62
I01
sbasg45
I00
sg46
g47
(g48
(I0
tp1189
g50
tp1190
Rp1191
(I1
(I2
tp1192
g57
I00
S'\x00\x03\xa0\xb2\xa26\x05\xc0\xfe}y\x7f\x98\xbf \xc0'
p1193
tp1194
bsg62
I01
sbag1100
ag1
(g2
g3
Ntp1195
Rp1196
(dp1197
g7
(lp1198
g1
(g2
g3
Ntp1199
Rp1200
(dp1201
g7
(lp1202
g1100
ag1196
ag1
(g2
g3
Ntp1203
Rp1204
(dp1205
g7
(lp1206
g1
(g2
g3
Ntp1207
Rp1208
(dp1209
g7
(lp1210
g1204
ag1
(g2
g3
Ntp1211
Rp1212
(dp1213
g7
(lp1214
g1
(g2
g3
Ntp1215
Rp1216
(dp1217
g7
(lp1218
g1068
ag1
(g2
g3
Ntp1219
Rp1220
(dp1221
g7
(lp1222
g1216
ag1072
ag1
(g2
g3
Ntp1223
Rp1224
(dp1225
g7
(lp1226
g1220
ag1096
ag1204
asg45
I00
sg46
g47
(g48
(I0
tp1227
g50
tp1228
Rp1229
(I1
(I2
tp1230
g57
I00
S'\xdc\xcf3\x14U=\x12\xc0\xe8>\x8ckh\xe1\x16\xc0'
p1231
tp1232
bsg62
I00
sbasg45
I00
sg46
g47
(g48
(I0
tp1233
g50
tp1234
Rp1235
(I1
(I2
tp1236
g57
I00
S"\x90\xe1\xff\x8b'\xde\x13\xc0K\xa7bC\xdf=\x12\xc0"
p1237
tp1238
bsg62
I01
sbag1212
asg45
I00
sg46
g47
(g48
(I0
tp1239
g50
tp1240
Rp1241
(I1
(I2
tp1242
g57
I00
S'(\x0b\x9fQ]\xa4\x17\xc0M\xbf\x16m\x02\x91\x13\xc0'
p1243
tp1244
bsg62
I01
sbag1208
ag1
(g2
g3
Ntp1245
Rp1246
(dp1247
g7
(lp1248
g1
(g2
g3
Ntp1249
Rp1250
(dp1251
g7
(lp1252
g1068
ag1
(g2
g3
Ntp1253
Rp1254
(dp1255
g7
(lp1256
g1064
ag1250
ag1068
asg45
I00
sg46
g47
(g48
(I0
tp1257
g50
tp1258
Rp1259
(I1
(I2
tp1260
g57
I00
S'\xe5\x7f8\x0c\xe3\x0b\x1e\xc0\xd5\xb6m\n\x10\xa4\n\xc0'
p1261
tp1262
bsg62
I01
sbag1246
asg45
I01
sg46
g47
(g48
(I0
tp1263
g50
tp1264
Rp1265
(I1
(I2
tp1266
g57
I00
S'\xd5\xbe+\xee\xd5\x13\x1f\xc0\xe6\xf8\x0b\xce\xb6q\x11\xc0'
p1267
tp1268
bsg62
I00
sbag1212
asg45
I00
sg46
g47
(g48
(I0
tp1269
g50
tp1270
Rp1271
(I1
(I2
tp1272
g57
I00
S'\xc9f\x96\x06j\t\x1e\xc0\xe1\x81Z\xcbrN\x15\xc0'
p1273
tp1274
bsg62
I01
sbasg45
I00
sg46
g47
(g48
(I0
tp1275
g50
tp1276
Rp1277
(I1
(I2
tp1278
g57
I00
S'\xc04>\x17\x93j\x1b\xc0O\xd7\xca\x96%\xe4\x14\xc0'
p1279
tp1280
bsg62
I01
sbag1
(g2
g3
Ntp1281
Rp1282
(dp1283
g7
(lp1284
g1
(g2
g3
Ntp1285
Rp1286
(dp1287
g7
(lp1288
g1
(g2
g3
Ntp1289
Rp1290
(dp1291
g7
(lp1292
g1196
ag1286
asg45
I00
sg46
g47
(g48
(I0
tp1293
g50
tp1294
Rp1295
(I1
(I2
tp1296
g57
I00
S'\xc3T\xa4\x99\xee\x1b\x14\xc0\x01\xbf\x16\xb4\x9c. \xc0'
p1297
tp1298
bsg62
I01
sbag1282
ag1200
asg45
I00
sg46
g47
(g48
(I0
tp1299
g50
tp1300
Rp1301
(I1
(I2
tp1302
g57
I00
S"o\xd86\x15q\xa3\x15\xc0'\x1e\x8a\xf9\x05\xab\x1c\xc0"
p1303
tp1304
bsg62
I01
sbag1208
asg45
I00
sg46
g47
(g48
(I0
tp1305
g50
tp1306
Rp1307
(I1
(I2
tp1308
g57
I00
S'J8\xda\x83\xa4U\x19\xc0\xd3\xa1\x1cu\x882\x1e\xc0'
p1309
tp1310
bsg62
I01
sbasg45
I01
sg46
g47
(g48
(I0
tp1311
g50
tp1312
Rp1313
(I1
(I2
tp1314
g57
I00
S'|\xa4\xa4\xaa\xca\xa8\x1b\xc0\xfa\xc4\xb8\xe6\x9c\xee\x19\xc0'
p1315
tp1316
bsg62
I00
sbag1200
ag1224
asg45
I01
sg46
g47
(g48
(I0
tp1317
g50
tp1318
Rp1319
(I1
(I2
tp1320
g57
I00
S'>\xccp\xe1\x1e\x96\x15\xc0\xf9\x04I\x86\xa30\x18\xc0'
p1321
tp1322
bsg62
I00
sbag1286
asg45
I00
sg46
g47
(g48
(I0
tp1323
g50
tp1324
Rp1325
(I1
(I2
tp1326
g57
I00
S'\x94x\x93\xa6=\xf1\x11\xc0{\x9a\xf7}\x83#\x1b\xc0'
p1327
tp1328
bsg62
I01
sbag1172
ag1290
asg45
I00
sg46
g47
(g48
(I0
tp1329
g50
tp1330
Rp1331
(I1
(I2
tp1332
g57
I00
S'\xe8\xf4\x00+\xbbi\x10\xc0V\xfa\x9a\xec\xb6\xd5\x1e\xc0'
p1333
tp1334
bsg62
I01
sbasg45
I00
sg46
g47
(g48
(I0
tp1335
g50
tp1336
Rp1337
(I1
(I2
tp1338
g57
I00
S'`\xf0\xd1\x9e\xd6q\t\xc0\x92\x06\xa5\xc8$\x1a\x1e\xc0'
p1339
tp1340
bsg62
I01
sbag1180
asg45
I00
sg46
g47
(g48
(I0
tp1341
g50
tp1342
Rp1343
(I1
(I2
tp1344
g57
I00
S'\x8d\x0562\xbe\xa7\x02\xc0\xe2\x0f\x8c\xd2\x8a\xfc\x1b\xc0'
p1345
tp1346
bsg62
I01
sbag1160
asg45
I00
sg46
g47
(g48
(I0
tp1347
g50
tp1348
Rp1349
(I1
(I2
tp1350
g57
I00
S't54\x8bK\xbb\xf7\xbf2\x19s\xdc\xf0\xde\x19\xc0'
p1351
tp1352
bsg62
I01
sbag1146
ag1180
ag1
(g2
g3
Ntp1353
Rp1354
(dp1355
g7
(lp1356
g1
(g2
g3
Ntp1357
Rp1358
(dp1359
g7
(lp1360
g1146
ag1
(g2
g3
Ntp1361
Rp1362
(dp1363
g7
(lp1364
g1358
ag1
(g2
g3
Ntp1365
Rp1366
(dp1367
g7
(lp1368
g1362
ag1
(g2
g3
Ntp1369
Rp1370
(dp1371
g7
(lp1372
g1366
ag1
(g2
g3
Ntp1373
Rp1374
(dp1375
g7
(lp1376
g1370
ag1362
asg45
I00
sg46
g47
(g48
(I0
tp1377
g50
tp1378
Rp1379
(I1
(I2
tp1380
g57
I00
S'~\x80\x9dX\x0b\xf7\x00@\xf2\x1f\xc4f;P\x1a\xc0'
p1381
tp1382
bsg62
I01
sbag1
(g2
g3
Ntp1383
Rp1384
(dp1385
g7
(lp1386
g1370
ag1
(g2
g3
Ntp1387
Rp1388
(dp1389
g7
(lp1390
g120
ag112
ag1384
asg45
I01
sg46
g47
(g48
(I0
tp1391
g50
tp1392
Rp1393
(I1
(I2
tp1394
g57
I00
S'\xa9\\%_\x15\x1d\x0e@\x08I\xd8}\xe7\x92\x1f\xc0'
p1395
tp1396
bsg62
I00
sbasg45
I00
sg46
g47
(g48
(I0
tp1397
g50
tp1398
Rp1399
(I1
(I2
tp1400
g57
I00
S'B[\x011sm\t@b\x05\xb0\xe9)\x8d \xc0'
p1401
tp1402
bsg62
I01
sbasg45
I00
sg46
g47
(g48
(I0
tp1403
g50
tp1404
Rp1405
(I1
(I2
tp1406
g57
I00
S'\xe0m\xcfD?2\x05@[\x15\x12\x9dG\xb5\x1d\xc0'
p1407
tp1408
bsg62
I01
sbasg45
I00
sg46
g47
(g48
(I0
tp1409
g50
tp1410
Rp1411
(I1
(I2
tp1412
g57
I00
S'\x1c\x06g\xb0M\xd0\xfc?\x0c\x0c+\x93\xe1\xd2\x1f\xc0'
p1413
tp1414
bsg62
I01
sbag1374
asg45
I00
sg46
g47
(g48
(I0
tp1415
g50
tp1416
Rp1417
(I1
(I2
tp1418
g57
I00
S'Y+\x03\xd8\xe5Y\xf4?\xa3\x16\xdd\\\xd5m\x1c\xc0'
p1419
tp1420
bsg62
I01
sbag1354
asg45
I00
sg46
g47
(g48
(I0
tp1421
g50
tp1422
Rp1423
(I1
(I2
tp1424
g57
I00
S'\xd4V-\xfb\xd3\x16\xdb?T\r\xf6Ro\x8b\x1e\xc0'
p1425
tp1426
bsg62
I01
sbag1160
asg45
I00
sg46
g47
(g48
(I0
tp1427
g50
tp1428
Rp1429
(I1
(I2
tp1430
g57
I00
S'\xbc\xff\xb1i\xef9\xdb\xbf\x02\x82\x87\xa4\x84T \xc0'
p1431
tp1432
bsg62
I01
sbasg45
I00
sg46
g47
(g48
(I0
tp1433
g50
tp1434
Rp1435
(I1
(I2
tp1436
g57
I00
S'h\xb5\xa0e\xc7\x89\xee\xbf\x9c\x0e\xc1\x12\xfdC\x1d\xc0'
p1437
tp1438
bsg62
I01
sbag1142
ag1358
asg45
I00
sg46
g47
(g48
(I0
tp1439
g50
tp1440
Rp1441
(I1
(I2
tp1442
g57
I00
S'\xd8P\x88\x99-\x0b\xbb\xbf\xeb\x17\xa8\x1cc&\x1b\xc0'
p1443
tp1444
bsg62
I01
sbasg45
I00
sg46
g47
(g48
(I0
tp1445
g50
tp1446
Rp1447
(I1
(I2
tp1448
g57
I00
S'\x9c\xbf\xf8c5N\xe4\xbf\x82"Z\xe6V\xc1\x17\xc0'
p1449
tp1450
bsg62
I01
sbag1124
ag1150
asg45
I00
sg46
g47
(g48
(I0
tp1451
g50
tp1452
Rp1453
(I1
(I2
tp1454
g57
I00
S'\xc4\xae\xdb9\xb1h\xcb?\xd2+A\xf0\xbc\xa3\x15\xc0'
p1455
tp1456
bsg62
I01
sbasg45
I00
sg46
g47
(g48
(I0
tp1457
g50
tp1458
Rp1459
(I1
(I2
tp1460
g57
I00
S'<e\xa7\x84\x8e8\xe4\xbf\xc3|\xc8>(\xfa\x12\xc0'
p1461
tp1462
bsg62
I01
sbag1116
asg45
I01
sg46
g47
(g48
(I0
tp1463
g50
tp1464
Rp1465
(I1
(I2
tp1466
g57
I00
S'c\x1d\xcf\xbd\xcd\x16\xf3\xbf\xd7\xa8O5\x8aW\x0f\xc0'
p1467
tp1468
bsg62
I00
sbag1092
ag1112
asg45
I00
sg46
g47
(g48
(I0
tp1469
g50
tp1470
Rp1471
(I1
(I2
tp1472
g57
I00
S'\xe1k>K\xd1\x1a\xfb\xbf>\x07\x16\xfdc\xf0\x10\xc0'
p1473
tp1474
bsg62
I00
sbag1142
asg45
I00
sg46
g47
(g48
(I0
tp1475
g50
tp1476
Rp1477
(I1
(I2
tp1478
g57
I00
S'\x8e:`\x8a\x82\x9d\xf2\xbf\x18-\x0c\xb0J\\\x14\xc0'
p1479
tp1480
bsg62
I01
sbag1104
asg45
I00
sg46
g47
(g48
(I0
tp1481
g50
tp1482
Rp1483
(I1
(I2
tp1484
g57
I00
S'\x1a\x08\xcc\xb1\xd9\x18\x00\xc0\xc8#%\xa6\xe4y\x16\xc0'
p1485
tp1486
bsg62
I01
sbag1168
ag1096
ag1100
asg45
I00
sg46
g47
(g48
(I0
tp1487
g50
tp1488
Rp1489
(I1
(I2
tp1490
g57
I00
S'\xed\xf2g\x1e\xf2\xe2\x06\xc0x\x1a>\x9c~\x97\x18\xc0'
p1491
tp1492
bsg62
I01
sbag1200
ag1172
asg45
I00
sg46
g47
(g48
(I0
tp1493
g50
tp1494
Rp1495
(I1
(I2
tp1496
g57
I00
S's1\xe0o\x14~\x0c\xc0\xcf\x16e\x02\x01\x9c\x19\xc0'
p1497
tp1498
bsg62
I01
sbag1
(g2
g3
Ntp1499
Rp1500
(dp1501
g7
(lp1502
g1088
ag1096
ag1072
asg45
I00
sg46
g47
(g48
(I0
tp1503
g50
tp1504
Rp1505
(I1
(I2
tp1506
g57
I00
S'\xef\xf0\xf97\xfc,\x0f\xc0\x85\xc6\x17>\xcf|\x11\xc0'
p1507
tp1508
bsg62
I01
sbag1104
ag1224
asg45
I01
sg46
g47
(g48
(I0
tp1509
g50
tp1510
Rp1511
(I1
(I2
tp1512
g57
I00
S'4\xcd\xd2.\x87\x8c\x0f\xc0w\x1a\xd6D~\xea\x15\xc0'
p1513
tp1514
bsg62
I00
sbag1088
ag1108
ag1116
asg45
I01
sg46
g47
(g48
(I0
tp1515
g50
tp1516
Rp1517
(I1
(I2
tp1518
g57
I00
S'\xba\xec\x818\xb8S\x04\xc0\x7f\xa80\xf3\x1c\x15\x13\xc0'
p1519
tp1520
bsg62
I00
sbag1500
ag1084
asg45
I00
sg46
g47
(g48
(I0
tp1521
g50
tp1522
Rp1523
(I1
(I2
tp1524
g57
I00
S'\xa1"\xdd\x96\xa1&\x08\xc0\xea\x1c+\x1b\xb5%\x0f\xc0'
p1525
tp1526
bsg62
I01
sbag1080
ag1116
asg45
I00
sg46
g47
(g48
(I0
tp1527
g50
tp1528
Rp1529
(I1
(I2
tp1530
g57
I00
S'ST\xc0\xf5F \x01\xc0\xcb\xac&\xba\xcbQ\x0b\xc0'
p1531
tp1532
bsg62
I01
sbag1076
ag1
(g2
g3
Ntp1533
Rp1534
(dp1535
g7
(lp1536
g140
ag1080
asg45
I01
sg46
g47
(g48
(I0
tp1537
g50
tp1538
Rp1539
(I1
(I2
tp1540
g57
I00
S'\xf2\x11\xb4\x85\x95*\x01\xc0`\xb1}G\x81:\xfd\xbf'
p1541
tp1542
bsg62
I00
sbag152
asg45
I00
sg46
g47
(g48
(I0
tp1543
g50
tp1544
Rp1545
(I1
(I2
tp1546
g57
I00
S'\x08O\xbb\x94b8\x06\xc0\xa01\xeeZx\xf8\x01\xc0'
p1547
tp1548
bsg62
I00
sbag1
(g2
g3
Ntp1549
Rp1550
(dp1551
g7
(lp1552
g1
(g2
g3
Ntp1553
Rp1554
(dp1555
g7
(lp1556
g1052
ag1550
ag1060
asg45
I00
sg46
g47
(g48
(I0
tp1557
g50
tp1558
Rp1559
(I1
(I2
tp1560
g57
I00
S'\xc7G\xbe,\xcd\xb2\x12\xc0\xad"D\xc5f\xd6\x02\xc0'
p1561
tp1562
bsg62
I01
sbag156
ag1076
asg45
I00
sg46
g47
(g48
(I0
tp1563
g50
tp1564
Rp1565
(I1
(I2
tp1566
g57
I00
S'\xc9\x97\xa9e\x1c\xfb\r\xc0\x19@:\xc3\xa8I\x00\xc0'
p1567
tp1568
bsg62
I00
sbasg45
I00
sg46
g47
(g48
(I0
tp1569
g50
tp1570
Rp1571
(I1
(I2
tp1572
g57
I00
S'\xd0\xec\xee\xd0 W\x0b\xc0\x0e\t\x84g\xf0^\x05\xc0'
p1573
tp1574
bsg62
I00
sbag1068
ag1500
ag1060
ag1220
asg45
I01
sg46
g47
(g48
(I0
tp1575
g50
tp1576
Rp1577
(I1
(I2
tp1578
g57
I00
S'\xd8$\xb7#Z\x11\x13\xc0D\xd8gn\x8c\xfa\n\xc0'
p1579
tp1580
bsg62
I00
sbag1250
ag1064
ag1216
ag1254
asg45
I01
sg46
g47
(g48
(I0
tp1581
g50
tp1582
Rp1583
(I1
(I2
tp1584
g57
I00
S'\xa3\x1f\x82\x10\x0e\xf7\x18\xc0\xf6\x1fWC%\x98\x0f\xc0'
p1585
tp1586
bsg62
I00
sbag1254
ag1060
ag1
(g2
g3
Ntp1587
Rp1588
(dp1589
g7
(lp1590
g1056
ag1064
ag1
(g2
g3
Ntp1591
Rp1592
(dp1593
g7
(lp1594
g1588
ag1
(g2
g3
Ntp1595
Rp1596
(dp1597
g7
(lp1598
g1592
ag1
(g2
g3
Ntp1599
Rp1600
(dp1601
g7
(lp1602
g1596
ag1588
asg45
I00
sg46
g47
(g48
(I0
tp1603
g50
tp1604
Rp1605
(I1
(I2
tp1606
g57
I00
S'\xedm\xbf\x97\xd4X\x1f\xc0\xc3\xe6\xc6\xcaV\x13\x03\xc0'
p1607
tp1608
bsg62
I01
sbasg45
I00
sg46
g47
(g48
(I0
tp1609
g50
tp1610
Rp1611
(I1
(I2
tp1612
g57
I00
S'\xfa-\xa3\x11\xe3R \xc0^-@\x16;\x05\xf7\xbf'
p1613
tp1614
bsg62
I01
sbasg45
I00
sg46
g47
(g48
(I0
tp1615
g50
tp1616
Rp1617
(I1
(I2
tp1618
g57
I00
S'\xe9\xf3r\x83i\xdd\x1c\xc0Bu$\xe8t\xd1\xf1\xbf'
p1619
tp1620
bsg62
I01
sbag1600
asg45
I00
sg46
g47
(g48
(I0
tp1621
g50
tp1622
Rp1623
(I1
(I2
tp1624
g57
I00
S'\xe2\x05\xec\xf7w\x90\x1b\xc0\xb5\n\xb9\xb3sy\x00\xc0'
p1625
tp1626
bsg62
I01
sbasg45
I00
sg46
g47
(g48
(I0
tp1627
g50
tp1628
Rp1629
(I1
(I2
tp1630
g57
I00
S'\xdb\x17el\x86C\x1a\xc0\xc8\xda_\xf3,\n\x08\xc0'
p1631
tp1632
bsg62
I01
sbag1056
ag1072
ag1554
asg45
I00
sg46
g47
(g48
(I0
tp1633
g50
tp1634
Rp1635
(I1
(I2
tp1636
g57
I00
S'\xd1\xaf\x91\xcc){\x16\xc0\xbb\xfeQ\xdcIp\x05\xc0'
p1637
tp1638
bsg62
I01
sbag1588
ag1052
asg45
I00
sg46
g47
(g48
(I0
tp1639
g50
tp1640
Rp1641
(I1
(I2
tp1642
g57
I00
S'\xd8\x9d\x18X\x1b\xc8\x17\xc0N]V9!\xbf\xfb\xbf'
p1643
tp1644
bsg62
I01
sbag168
ag1554
asg45
I00
sg46
g47
(g48
(I0
tp1645
g50
tp1646
Rp1647
(I1
(I2
tp1648
g57
I00
S'\xce5E\xb8\xbe\xff\x13\xc02\xa5:\x0b[\x8b\xf6\xbf'
p1649
tp1650
bsg62
I01
sbasg45
I00
sg46
g47
(g48
(I0
tp1651
g50
tp1652
Rp1653
(I1
(I2
tp1654
g57
I00
S'\xa2Y\\\xa5\xd0\xd4\x14\xc0\\c\xe5q\xa1\x8d\xbc?'
p1655
tp1656
bsg62
I01
sbag160
asg45
I00
sg46
g47
(g48
(I0
tp1657
g50
tp1658
Rp1659
(I1
(I2
tp1660
g57
I00
S'z\xc6\xc4\x9f\x8b.\x13\xc0(`\xe6CU\x95\xe9\xbf'
p1661
tp1662
bsg62
I01
sbag1014
ag156
asg45
I00
sg46
g47
(g48
(I0
tp1663
g50
tp1664
Rp1665
(I1
(I2
tp1666
g57
I00
S'\x9cy\xf9 ?\r\x11\xc0\x86\x15\xfbr\xb0\xde\xe1\xbf'
p1667
tp1668
bsg62
I00
sbag1550
asg45
I01
sg46
g47
(g48
(I0
tp1669
g50
tp1670
Rp1671
(I1
(I2
tp1672
g57
I00
S'\xdd\xbdL\x04<t\x10\xc0\xd6\xb8\xb0\xe6BN\xf5\xbf'
p1673
tp1674
bsg62
I00
sbag148
ag1080
asg45
I00
sg46
g47
(g48
(I0
tp1675
g50
tp1676
Rp1677
(I1
(I2
tp1678
g57
I00
S'\x8cI\x18\xbb\x1e\x97\t\xc02\xfd\x83_\xdb^\xee\xbf'
p1679
tp1680
bsg62
I01
sbasg45
I00
sg46
g47
(g48
(I0
tp1681
g50
tp1682
Rp1683
(I1
(I2
tp1684
g57
I00
S'\x00\x00\x00\x00\x00\x00\x08\xc0\x00\x00\x00\x00\x00\x00\x00\x00'
p1685
tp1686
bsg62
I00
sbag204
ag140
ag196
asg45
I00
sg46
g47
(g48
(I0
tp1687
g50
tp1688
Rp1689
(I1
(I2
tp1690
g57
I00
S'\x00\x00\x00\x00\x00\x00\x00\xc0\x00\x00\x00\x00\x00\x00\x00\x00'
p1691
tp1692
bsg62
I00
sbag1534
ag1
(g2
g3
Ntp1693
Rp1694
(dp1695
g7
(lp1696
g136
ag140
asg45
I00
sg46
g47
(g48
(I0
tp1697
g50
tp1698
Rp1699
(I1
(I2
tp1700
g57
I00
S'B\x01\xb2q\xc4\xd3\xee\xbfd\xe8\x9a{P\xcf\x00\xc0'
p1701
tp1702
bsg62
I01
sbasg45
I00
sg46
g47
(g48
(I0
tp1703
g50
tp1704
Rp1705
(I1
(I2
tp1706
g57
I00
S'\xd6\x01u\xa1\x19\xde\xee\xbf\xc8\xfd\xd9\xd7z\xf5\xea\xbf'
p1707
tp1708
bsg62
I00
sbag1694
ag1
(g2
g3
Ntp1709
Rp1710
(dp1711
g7
(lp1712
g1
(g2
g3
Ntp1713
Rp1714
(dp1715
g7
(lp1716
g1
(g2
g3
Ntp1717
Rp1718
(dp1719
g7
(lp1720
g1
(g2
g3
Ntp1721
Rp1722
(dp1723
g7
(lp1724
g128
ag1718
ag1
(g2
g3
Ntp1725
Rp1726
(dp1727
g7
(lp1728
g1722
ag124
ag128
asg45
I00
sg46
g47
(g48
(I0
tp1729
g50
tp1730
Rp1731
(I1
(I2
tp1732
g57
I00
S'\xd4\xbbes\xe7\xb7\x02@D\x0f%\xb7@\x9b\x11\xc0'
p1733
tp1734
bsg62
I01
sbag1
(g2
g3
Ntp1735
Rp1736
(dp1737
g7
(lp1738
g1714
ag1
(g2
g3
Ntp1739
Rp1740
(dp1741
g7
(lp1742
g1
(g2
g3
Ntp1743
Rp1744
(dp1745
g7
(lp1746
g1714
ag1
(g2
g3
Ntp1747
Rp1748
(dp1749
g7
(lp1750
g10
ag5
ag1744
ag1710
asg45
I00
sg46
g47
(g48
(I0
tp1751
g50
tp1752
Rp1753
(I1
(I2
tp1754
g57
I00
S'cw$kY\xd5\x04@\x06\xb7\xd7\x9e\x1e\xb1\xeb\xbf'
p1755
tp1756
bsg62
I01
sbag1740
asg45
I00
sg46
g47
(g48
(I0
tp1757
g50
tp1758
Rp1759
(I1
(I2
tp1760
g57
I00
S'\xe6\x80;\xdf\x1d\xa5\x05@\x0e\x1aq\xbc\x15\x8d\xf9\xbf'
p1761
tp1762
bsg62
I01
sbag1736
ag1
(g2
g3
Ntp1763
Rp1764
(dp1765
g7
(lp1766
g1740
ag1
(g2
g3
Ntp1767
Rp1768
(dp1769
g7
(lp1770
g1764
ag26
ag1
(g2
g3
Ntp1771
Rp1772
(dp1773
g7
(lp1774
g1768
ag1
(g2
g3
Ntp1775
Rp1776
(dp1777
g7
(lp1778
g1772
ag14
ag26
asg45
I00
sg46
g47
(g48
(I0
tp1779
g50
tp1780
Rp1781
(I1
(I2
tp1782
g57
I00
S'E0\xf6\xa9\xf2\xd7\x12@\xb1\n\x93\xe3\x9b\x0e\xf5\xbf'
p1783
tp1784
bsg62
I00
sbasg45
I00
sg46
g47
(g48
(I0
tp1785
g50
tp1786
Rp1787
(I1
(I2
tp1788
g57
I00
S'\xd4$\xa2\x93\x8cn\x10@ \xdfF(Lz\xfc\xbf'
p1789
tp1790
bsg62
I01
sbag1
(g2
g3
Ntp1791
Rp1792
(dp1793
g7
(lp1794
g1768
ag30
asg45
I00
sg46
g47
(g48
(I0
tp1795
g50
tp1796
Rp1797
(I1
(I2
tp1798
g57
I00
S'\xf0\x17\xb1\x9c<O\x15@\xda\x1a\x17\x92\xbc\xeb\n\xc0'
p1799
tp1800
bsg62
I01
sbasg45
I00
sg46
g47
(g48
(I0
tp1801
g50
tp1802
Rp1803
(I1
(I2
tp1804
g57
I00
S'b\x9e)\x98\xe4\xde\x12@5E\x1dSq\x94\x04\xc0'
p1805
tp1806
bsg62
I01
sbag1
(g2
g3
Ntp1807
Rp1808
(dp1809
g7
(lp1810
g1
(g2
g3
Ntp1811
Rp1812
(dp1813
g7
(lp1814
g1
(g2
g3
Ntp1815
Rp1816
(dp1817
g7
(lp1818
g116
ag124
ag1812
asg45
I00
sg46
g47
(g48
(I0
tp1819
g50
tp1820
Rp1821
(I1
(I2
tp1822
g57
I00
S'tM\x81\xa0\x04\x01\x08@\x87\xc7C\xe1\xc6\n\x15\xc0'
p1823
tp1824
bsg62
I01
sbag1808
ag1
(g2
g3
Ntp1825
Rp1826
(dp1827
g7
(lp1828
g1812
ag1
(g2
g3
Ntp1829
Rp1830
(dp1831
g7
(lp1832
g1826
ag1
(g2
g3
Ntp1833
Rp1834
(dp1835
g7
(lp1836
g1
(g2
g3
Ntp1837
Rp1838
(dp1839
g7
(lp1840
g76
ag1834
ag1
(g2
g3
Ntp1841
Rp1842
(dp1843
g7
(lp1844
g1
(g2
g3
Ntp1845
Rp1846
(dp1847
g7
(lp1848
g104
ag1830
ag1842
ag1
(g2
g3
Ntp1849
Rp1850
(dp1851
g7
(lp1852
g88
ag1842
ag100
ag1846
asg45
I00
sg46
g47
(g48
(I0
tp1853
g50
tp1854
Rp1855
(I1
(I2
tp1856
g57
I00
S'\x94a\x99\xa5k\xc5\x1a@Ay\xf1\x9d\x9bt\x15\xc0'
p1857
tp1858
bsg62
I01
sbasg45
I00
sg46
g47
(g48
(I0
tp1859
g50
tp1860
Rp1861
(I1
(I2
tp1862
g57
I00
S'\xd7\xdc4\xb7\x1a\xbd\x17@\xdcD/f}\xa4\x15\xc0'
p1863
tp1864
bsg62
I01
sbag1838
ag1850
asg45
I00
sg46
g47
(g48
(I0
tp1865
g50
tp1866
Rp1867
(I1
(I2
tp1868
g57
I00
S'N_\x1b\x92\xac\xf7\x18@\xe4\x9e\xcb\x18k\x11\x14\xc0'
p1869
tp1870
bsg62
I00
sbasg45
I00
sg46
g47
(g48
(I0
tp1871
g50
tp1872
Rp1873
(I1
(I2
tp1874
g57
I00
S'\xc2v\x1c\x06\xc6\x99\x17@\xb3\xffi\x99C\x04\x13\xc0'
p1875
tp1876
bsg62
I01
sbag1830
ag1812
asg45
I00
sg46
g47
(g48
(I0
tp1877
g50
tp1878
Rp1879
(I1
(I2
tp1880
g57
I00
S'\xf0\x8b\x9ff n\x14@%\x86\xe2\x94\xeb\x93\x10\xc0'
p1881
tp1882
bsg62
I01
sbag1846
asg45
I00
sg46
g47
(g48
(I0
tp1883
g50
tp1884
Rp1885
(I1
(I2
tp1886
g57
I00
S'\xec\xf5\xc1\x93%\xc8\x14@=\xbf\xb1w\xbcU\x13\xc0'
p1887
tp1888
bsg62
I01
sbag116
ag104
asg45
I00
sg46
g47
(g48
(I0
tp1889
g50
tp1890
Rp1891
(I1
(I2
tp1892
g57
I00
S'\x1a\x0bE\xf4\x7f\x9c\x11@\xcb89|\x14\xc6\x15\xc0'
p1893
tp1894
bsg62
I01
sbag1834
asg45
I00
sg46
g47
(g48
(I0
tp1895
g50
tp1896
Rp1897
(I1
(I2
tp1898
g57
I00
S'\x18#{\xdfOX\x0e@\xf9M\xbc\xdcn\x9a\x12\xc0'
p1899
tp1900
bsg62
I01
sbag1764
ag1736
asg45
I00
sg46
g47
(g48
(I0
tp1901
g50
tp1902
Rp1903
(I1
(I2
tp1904
g57
I00
S'\xfc/l\xd6\x9fw\t@N\xc6~z\x92\xdd\x0e\xc0'
p1905
tp1906
bsg62
I01
sbasg45
I00
sg46
g47
(g48
(I0
tp1907
g50
tp1908
Rp1909
(I1
(I2
tp1910
g57
I00
S'\x1egY\xf1}f\x0f@Q8,\\!u\t\xc0'
p1911
tp1912
bsg62
I01
sbasg45
I00
sg46
g47
(g48
(I0
tp1913
g50
tp1914
Rp1915
(I1
(I2
tp1916
g57
I00
S'\x02tJ\xe8\xcd\x85\n@\xacb2\x1d\xd6\x1d\x03\xc0'
p1917
tp1918
bsg62
I01
sbag1722
ag1808
asg45
I00
sg46
g47
(g48
(I0
tp1919
g50
tp1920
Rp1921
(I1
(I2
tp1922
g57
I00
S']\x9eP\xa9\x82.\x04@\xc8UA&\x86\xfe\x07\xc0'
p1923
tp1924
bsg62
I01
sbasg45
I00
sg46
g47
(g48
(I0
tp1925
g50
tp1926
Rp1927
(I1
(I2
tp1928
g57
I00
S'p\x91\xad\xd4n\xae\xfb?\xe4HP/6\xdf\x0c\xc0'
p1929
tp1930
bsg62
I01
sbag132
ag1714
asg45
I00
sg46
g47
(g48
(I0
tp1931
g50
tp1932
Rp1933
(I1
(I2
tp1934
g57
I00
S'8\xab\x8f\xc2\x0e\xed\xf1??sV\xf0\xea\x87\x06\xc0'
p1935
tp1936
bsg62
I01
sbag1744
ag1710
ag1736
asg45
I00
sg46
g47
(g48
(I0
tp1937
g50
tp1938
Rp1939
(I1
(I2
tp1940
g57
I00
S'\x82V\x83@\xa5\x9b\xfe?#\x80G\xe7:\xa7\x01\xc0'
p1941
tp1942
bsg62
I01
sbag136
ag1748
asg45
I00
sg46
g47
(g48
(I0
tp1943
g50
tp1944
Rp1945
(I1
(I2
tp1946
g57
I00
S'Jpe.E\xda\xf4?\xfcT\x9bP\xdf\x9f\xf6\xbf'
p1947
tp1948
bsg62
I01
sbasg45
I01
sg46
g47
(g48
(I0
tp1949
g50
tp1950
Rp1951
(I1
(I2
tp1952
g57
I00
S'\x00\x00\x00\x00\x00\x00\x00\x00\x00\x00\x00\x00\x00\x00\x00\xc0'
p1953
tp1954
bsg62
I00
sbag128
ag1120
ag1718
ag1128
asg45
I00
sg46
g47
(g48
(I0
tp1955
g50
tp1956
Rp1957
(I1
(I2
tp1958
g57
I00
S'\x00\x00\x00\x00\x00\x00\x00\x00\x00\x00\x00\x00\x00\x00\x08\xc0'
p1959
tp1960
bsg62
I00
sbag124
ag1722
ag1726
asg45
I01
sg46
g47
(g48
(I0
tp1961
g50
tp1962
Rp1963
(I1
(I2
tp1964
g57
I00
S'M\xccs\xad\xb0\xff\xed?\x00\x9e/\x1c\xf3\xdf\x10\xc0'
p1965
tp1966
bsg62
I00
sbag120
ag1726
ag1816
ag1150
asg45
I01
sg46
g47
(g48
(I0
tp1967
g50
tp1968
Rp1969
(I1
(I2
tp1970
g57
I00
S'\x84\xd8\x1e\xf0\x9ao\xfe?_\x06\n\x8eE\xe4\x15\xc0'
p1971
tp1972
bsg62
I00
sbag1388
ag116
asg45
I01
sg46
g47
(g48
(I0
tp1973
g50
tp1974
Rp1975
(I1
(I2
tp1976
g57
I00
S'\xecj\x96ji\x8a\x06@\xe7+H\x85\xc4\xa6\x1a\xc0'
p1977
tp1978
bsg62
I00
sbag1816
ag112
ag1826
asg45
I00
sg46
g47
(g48
(I0
tp1979
g50
tp1980
Rp1981
(I1
(I2
tp1982
g57
I00
S'\x90@\x90\xa9\xb4\xe1\x0c@Y\xb2\xc0\x80l6\x18\xc0'
p1983
tp1984
bsg62
I01
sbag1388
ag108
asg45
I00
sg46
g47
(g48
(I0
tp1985
g50
tp1986
Rp1987
(I1
(I2
tp1988
g57
I00
S'\xd6\x99OY2\xe1\x10@+\x9d= \x12b\x1b\xc0'
p1989
tp1990
bsg62
I01
sbag104
ag1
(g2
g3
Ntp1991
Rp1992
(dp1993
g7
(lp1994
g100
ag108
asg45
I00
sg46
g47
(g48
(I0
tp1995
g50
tp1996
Rp1997
(I1
(I2
tp1998
g57
I00
S'|.\x1dz97\x18@\xd9\x15\xbc\xed\xf6\x92\x1e\xc0'
p1999
tp2000
bsg62
I01
sbasg45
I00
sg46
g47
(g48
(I0
tp2001
g50
tp2002
Rp2003
(I1
(I2
tp2004
g57
I00
S')d\xb6\xe95\x8c\x14@\x82\xd9\xfc\x86\x84\xfa\x1c\xc0'
p2005
tp2006
bsg62
I01
sbag1846
ag1826
ag100
asg45
I00
sg46
g47
(g48
(I0
tp2007
g50
tp2008
Rp2009
(I1
(I2
tp2010
g57
I00
S'\x80\xa0uP\xa8$\x16@/\x0f\x96\xf6\x80O\x19\xc0'
p2011
tp2012
bsg62
I01
sbag1850
ag1992
ag96
asg45
I00
sg46
g47
(g48
(I0
tp2013
g50
tp2014
Rp2015
(I1
(I2
tp2016
g57
I00
S'\xd3j\xdc\xe0\xab\xcf\x19@\x86KU]\xf3\xe7\x1a\xc0'
p2017
tp2018
bsg62
I01
sbasg45
I00
sg46
g47
(g48
(I0
tp2019
g50
tp2020
Rp2021
(I1
(I2
tp2022
g57
I00
S'\xaa\xbd\x0b\xe0^\xac\x1e@/W}F\xf1\x80\x1d\xc0'
p2023
tp2024
bsg62
I01
sbasg45
I00
sg46
g47
(g48
(I0
tp2025
g50
tp2026
Rp2027
(I1
(I2
tp2028
g57
I00
S'\x9c\x9bIr[\x8e @]l\x00\xa7KU\x1a\xc0'
p2029
tp2030
bsg62
I01
sbag1850
asg45
I00
sg46
g47
(g48
(I0
tp2031
g50
tp2032
Rp2033
(I1
(I2
tp2034
g57
I00
S'fL\x16E\x11\xf1\x1d@\xcf\xf2x\xa2\xf3\xe4\x17\xc0'
p2035
tp2036
bsg62
I01
sbasg45
I00
sg46
g47
(g48
(I0
tp2037
g50
tp2038
Rp2039
(I1
(I2
tp2040
g57
I00
S'\xfa\xe2\xce\xa4\xb40 @\xfd\x07\xfc\x02N\xb9\x14\xc0'
p2041
tp2042
bsg62
I01
sbag76
asg45
I00
sg46
g47
(g48
(I0
tp2043
g50
tp2044
Rp2045
(I1
(I2
tp2046
g57
I00
S'"\xdb \xaa\xc35\x1d@o\x8et\xfe\xf5H\x12\xc0'
p2047
tp2048
bsg62
I01
sbag1838
ag72
asg45
I00
sg46
g47
(g48
(I0
tp2049
g50
tp2050
Rp2051
(I1
(I2
tp2052
g57
I00
S'P\xf0\xa3\n\x1e\n\x1a@\xc2)\xda\xf3;\xb1\x0f\xc0'
p2053
tp2054
bsg62
I01
sbag30
asg45
I01
sg46
g47
(g48
(I0
tp2055
g50
tp2056
Rp2057
(I1
(I2
tp2058
g57
I00
S'\xb5\x05^1\x9e\xc4\x1a@\x06\xba\xcb\xd5U\xb8\x06\xc0'
p2059
tp2060
bsg62
I00
sbag80
ag64
asg45
I01
sg46
g47
(g48
(I0
tp2061
g50
tp2062
Rp2063
(I1
(I2
tp2064
g57
I00
S'\xb0T\xa8\xae\x1b\xa6\x1f@:G\xef\xbd\xa0:\x0e\xc0'
p2065
tp2066
bsg62
I00
sbasg45
I00
sg46
g47
(g48
(I0
tp2067
g50
tp2068
Rp2069
(I1
(I2
tp2070
g57
I00
S'\xf6\x8f\xb7\xf6\xd6\x0e @T\xf2xp\x1c\xf2\x06\xc0'
p2071
tp2072
bsg62
I01
sbag34
asg45
I00
sg46
g47
(g48
(I0
tp2073
g50
tp2074
Rp2075
(I1
(I2
tp2076
g57
I00
S'4\x07\x1c\xd52\xc2\x1c@\x84|\x89I\xcb\x98\x02\xc0'
p2077
tp2078
bsg62
I01
sbag30
ag22
asg45
I00
sg46
g47
(g48
(I0
tp2079
g50
tp2080
Rp2081
(I1
(I2
tp2082
g57
I00
S'}\xee\xc8\xbc\xb7f\x19@h\r4E\xf4~\xfc\xbf'
p2083
tp2084
bsg62
I01
sbag72
ag26
ag1792
asg45
I00
sg46
g47
(g48
(I0
tp2085
g50
tp2086
Rp2087
(I1
(I2
tp2088
g57
I00
S'\xfa\x84\xfb\x19G\x06\x18@\r/4\xd9\xcf\x7f\x02\xc0'
p2089
tp2090
bsg62
I00
sbag1768
ag1776
asg45
I00
sg46
g47
(g48
(I0
tp2091
g50
tp2092
Rp2093
(I1
(I2
tp2094
g57
I00
S'\x0b/\xcf`\xf5\xc8\x15@\x9e\x1aV\x8c\x90\x1b\xfe\xbf'
p2095
tp2096
bsg62
I00
sbag262
ag18
ag42
ag280
ag302
ag34
asg45
I00
sg46
g47
(g48
(I0
tp2097
g50
tp2098
Rp2099
(I1
(I2
tp2100
g57
I00
S'2\r\xbc\xed)\xa4\x19@\xde.s\xc51\x1c\xe4\xbf'
p2101
tp2102
bsg62
I00
sbag238
ag14
ag302
asg45
I01
sg46
g47
(g48
(I0
tp2103
g50
tp2104
Rp2105
(I1
(I2
tp2106
g57
I00
S'Jw\x80\x1d\xbdE\x14@\xdc\xd2\xd38\xb6\xd4\xce?'
p2107
tp2108
bsg62
I00
sbag1776
asg45
I01
sg46
g47
(g48
(I0
tp2109
g50
tp2110
Rp2111
(I1
(I2
tp2112
g57
I00
S'\xfe\xaf]\x82\xeb\xe0\x10@\xfe\xff\xa2I\xa9\x05\xee\xbf'
p2113
tp2114
bsg62
I00
sbag1748
asg45
I01
sg46
g47
(g48
(I0
tp2115
g50
tp2116
Rp2117
(I1
(I2
tp2118
g57
I00
S'\x00\x00\x00\x00\x00\x00\x08@\x00\x00\x00\x00\x00\x00\x00\x00'
p2119
tp2120
bsg62
I00
sbag1748
asg45
I00
sg46
g47
(g48
(I0
tp2121
g50
tp2122
Rp2123
(I1
(I2
tp2124
g57
I00
S'\x00\x00\x00\x00\x00\x00\x00@\x00\x00\x00\x00\x00\x00\x00\x00'
p2125
tp2126
bsg62
I00
sbag10
ag136
ag132
ag208
ag212
ag144
ag148
ag14
ag140
ag128
ag1120
ag204
ag216
ag192
ag26
ag1534
ag124
ag1092
ag196
ag184
ag400
ag72
ag22
ag1076
ag120
ag1096
ag420
ag180
ag392
ag68
ag262
ag18
ag42
ag1072
ag156
ag1388
ag1204
ag424
ag416
ag176
ag1014
ag384
ag266
ag238
ag1068
ag1208
ag428
ag500
ag412
ag1030
ag380
ag234
ag1250
ag432
ag504
ag396
ag376
ag230
ag388
ag1748
ag1694
ag226
ag1722
ag1124
ag200
ag1718
ag1726
ag1128
ag1088
ag1108
ag404
ag1714
ag1500
ag1084
ag1112
ag1104
ag188
ag408
ag116
ag1100
ag1744
ag1710
ag1736
ag1080
ag1116
ag1142
ag1168
ag1816
ag112
ag1200
ag80
ag276
ag258
ag38
ag152
ag172
ag1740
ag1138
ag1164
ag1172
ag1812
ag108
ag1196
ag84
ag76
ag280
ag302
ag254
ag64
ag34
ag168
ag242
ag1064
ag1216
ag462
ag634
ag1764
ag1150
ag1160
ag1176
ag1808
ag1826
ag104
ag1290
ag88
ag1838
ag250
ag30
ag164
ag246
ag1254
ag1060
ag1220
ag1212
ag466
ag458
ag1246
ag508
ag1768
ag1146
ag1180
ag1830
ag1846
ag100
ag1286
ag92
ag1850
ag1834
ag324
ag160
ag1056
ag1224
ag454
ag512
ag1772
ag1792
ag1358
ag1842
ag1992
ag1282
ag96
ag328
ag710
ag1588
ag1052
ag516
ag526
ag1776
ag1362
ag1354
ag332
ag706
ag1592
ag1554
ag530
ag1366
ag336
ag702
ag1596
ag1550
ag534
ag1370
ag340
ag688
ag698
ag1600
ag1374
ag1384
ag344
ag684
ag720
ag348
ag848
ag356
ag680
ag352
ag852
ag676
ag742
ag364
ag856
ag768
ag368
ag360
ag860
ag764
ag372
ag672
ag778
ag668
a.